---
triple:          'arm64-apple-darwin'
binary-path:     main
relocations:
  - { offsetInCU: 0x26, offset: 0x26, size: 0x8, addend: 0x0, symName: _main, symObjAddr: 0x0, symBinAddr: 0x100001C9C, symSize: 0x3C }
  - { offsetInCU: 0x2C5F, offset: 0x2C5F, size: 0x8, addend: 0x0, symName: _main, symObjAddr: 0x0, symBinAddr: 0x100001C9C, symSize: 0x3C }
  - { offsetInCU: 0x56E8, offset: 0x83AE, size: 0x8, addend: 0x0, symName: __ZNSt3__124__put_character_sequenceB7v160006IcNS_11char_traitsIcEEEERNS_13basic_ostreamIT_T0_EES7_PKS4_m, symObjAddr: 0x3D88, symBinAddr: 0x100005A60, symSize: 0x1F4 }
  - { offsetInCU: 0x83E9, offset: 0xB0AF, size: 0x8, addend: 0x0, symName: __ZNSt3__1lsB7v160006INS_11char_traitsIcEEEERNS_13basic_ostreamIcT_EES6_PKc, symObjAddr: 0x678, symBinAddr: 0x100002350, symSize: 0x48 }
  - { offsetInCU: 0x842F, offset: 0xB0F5, size: 0x8, addend: 0x0, symName: __ZNSt3__14endlB7v160006IcNS_11char_traitsIcEEEERNS_13basic_ostreamIT_T0_EES7_, symObjAddr: 0x6EC, symBinAddr: 0x1000023C4, symSize: 0x58 }
  - { offsetInCU: 0x846F, offset: 0xB135, size: 0x8, addend: 0x0, symName: __ZNSt3__1neB7v160006IPNS_6vectorINS_12basic_stringIcNS_11char_traitsIcEENS_9allocatorIcEEEENS5_IS7_EEEEEEbRKNS_11__wrap_iterIT_EESF_, symObjAddr: 0x7A4, symBinAddr: 0x10000247C, symSize: 0x34 }
  - { offsetInCU: 0x84B2, offset: 0xB178, size: 0x8, addend: 0x0, symName: __ZNSt3__1neB7v160006IPKNS_12basic_stringIcNS_11char_traitsIcEENS_9allocatorIcEEEEEEbRKNS_11__wrap_iterIT_EESD_, symObjAddr: 0x850, symBinAddr: 0x100002528, symSize: 0x34 }
  - { offsetInCU: 0x84F5, offset: 0xB1BB, size: 0x8, addend: 0x0, symName: __ZNSt3__1neB7v160006IcNS_11char_traitsIcEENS_9allocatorIcEEEEbRKNS_12basic_stringIT_T0_T1_EEPKS6_, symObjAddr: 0x89C, symBinAddr: 0x100002574, symSize: 0x34 }
  - { offsetInCU: 0x854D, offset: 0xB213, size: 0x8, addend: 0x0, symName: __ZNSt3__1lsB7v160006IcNS_11char_traitsIcEENS_9allocatorIcEEEERNS_13basic_ostreamIT_T0_EES9_RKNS_12basic_stringIS6_S7_T1_EE, symObjAddr: 0x8D0, symBinAddr: 0x1000025A8, symSize: 0x4C }
  - { offsetInCU: 0x85A5, offset: 0xB26B, size: 0x8, addend: 0x0, symName: __ZNSt3__19make_pairB7v160006IRiS1_EENS_4pairINS_18__unwrap_ref_decayIT_E4typeENS3_IT0_E4typeEEEOS4_OS7_, symObjAddr: 0xCD8, symBinAddr: 0x1000029B0, symSize: 0x34 }
  - { offsetInCU: 0x85F4, offset: 0xB2BA, size: 0x8, addend: 0x0, symName: __ZNSt3__19make_pairB7v160006IRNS_6vectorINS1_INS_12basic_stringIcNS_11char_traitsIcEENS_9allocatorIcEEEENS5_IS7_EEEENS5_IS9_EEEESC_EENS_4pairINS_18__unwrap_ref_decayIT_E4typeENSE_IT0_E4typeEEEOSF_OSI_, symObjAddr: 0xF70, symBinAddr: 0x100002C48, symSize: 0x40 }
  - { offsetInCU: 0x8643, offset: 0xB309, size: 0x8, addend: 0x0, symName: __ZNSt3__119__debug_db_insert_cB7v160006INS_12basic_stringIcNS_11char_traitsIcEENS_9allocatorIcEEEEEEvPT_, symObjAddr: 0x11A4, symBinAddr: 0x100002E7C, symSize: 0x10 }
  - { offsetInCU: 0x8674, offset: 0xB33A, size: 0x8, addend: 0x0, symName: __ZNSt3__118__constexpr_strlenB7v160006EPKc, symObjAddr: 0x1270, symBinAddr: 0x100002F48, symSize: 0x24 }
  - { offsetInCU: 0x86A0, offset: 0xB366, size: 0x8, addend: 0x0, symName: __ZNSt3__119__debug_db_insert_cB7v160006INS_6vectorINS1_INS_12basic_stringIcNS_11char_traitsIcEENS_9allocatorIcEEEENS5_IS7_EEEENS5_IS9_EEEEEEvPT_, symObjAddr: 0x1338, symBinAddr: 0x100003010, symSize: 0x10 }
  - { offsetInCU: 0x86D1, offset: 0xB397, size: 0x8, addend: 0x0, symName: __ZNSt3__118__debug_db_erase_cB7v160006INS_6vectorINS1_INS_12basic_stringIcNS_11char_traitsIcEENS_9allocatorIcEEEENS5_IS7_EEEENS5_IS9_EEEEEEvPT_, symObjAddr: 0x1610, symBinAddr: 0x1000032E8, symSize: 0x10 }
  - { offsetInCU: 0x8702, offset: 0xB3C8, size: 0x8, addend: 0x0, symName: __ZNSt3__112__to_addressB7v160006INS_6vectorINS_12basic_stringIcNS_11char_traitsIcEENS_9allocatorIcEEEENS5_IS7_EEEEEEPT_SB_, symObjAddr: 0x1754, symBinAddr: 0x10000342C, symSize: 0x14 }
  - { offsetInCU: 0x8737, offset: 0xB3FD, size: 0x8, addend: 0x0, symName: __ZNSt3__130__libcpp_is_constant_evaluatedB7v160006Ev, symObjAddr: 0x18D0, symBinAddr: 0x1000035A8, symSize: 0xC }
  - { offsetInCU: 0x8754, offset: 0xB41A, size: 0x8, addend: 0x0, symName: __ZNSt3__119__libcpp_deallocateB7v160006EPvmm, symObjAddr: 0x18DC, symBinAddr: 0x1000035B4, symSize: 0x30 }
  - { offsetInCU: 0x879C, offset: 0xB462, size: 0x8, addend: 0x0, symName: __ZNSt3__127__do_deallocate_handle_sizeB7v160006IJEEEvPvmDpT_, symObjAddr: 0x190C, symBinAddr: 0x1000035E4, symSize: 0x28 }
  - { offsetInCU: 0x87DA, offset: 0xB4A0, size: 0x8, addend: 0x0, symName: __ZNSt3__124__libcpp_operator_deleteB7v160006IJPvEEEvDpT_, symObjAddr: 0x1934, symBinAddr: 0x10000360C, symSize: 0x24 }
  - { offsetInCU: 0x880F, offset: 0xB4D5, size: 0x8, addend: 0x0, symName: __ZNSt3__122__make_exception_guardB7v160006INS_6vectorINS_12basic_stringIcNS_11char_traitsIcEENS_9allocatorIcEEEENS5_IS7_EEE16__destroy_vectorEEENS_28__exception_guard_exceptionsIT_EESC_, symObjAddr: 0x1B1C, symBinAddr: 0x1000037F4, symSize: 0x40 }
  - { offsetInCU: 0x8844, offset: 0xB50A, size: 0x8, addend: 0x0, symName: __ZNSt3__119__debug_db_insert_cB7v160006INS_6vectorINS_12basic_stringIcNS_11char_traitsIcEENS_9allocatorIcEEEENS5_IS7_EEEEEEvPT_, symObjAddr: 0x1B90, symBinAddr: 0x100003868, symSize: 0x10 }
  - { offsetInCU: 0x8875, offset: 0xB53B, size: 0x8, addend: 0x0, symName: __ZNSt3__119__allocate_at_leastB7v160006INS_9allocatorINS_12basic_stringIcNS_11char_traitsIcEENS1_IcEEEEEEEENS_19__allocation_resultINS_16allocator_traitsIT_E7pointerEEERSA_m, symObjAddr: 0x1F44, symBinAddr: 0x100003C1C, symSize: 0x40 }
  - { offsetInCU: 0x88B8, offset: 0xB57E, size: 0x8, addend: 0x0, symName: __ZNSt3__13minB7v160006ImEERKT_S3_S3_, symObjAddr: 0x209C, symBinAddr: 0x100003D74, symSize: 0x2C }
  - { offsetInCU: 0x8AFC, offset: 0xB7C2, size: 0x8, addend: 0x0, symName: __ZNSt3__13minB7v160006ImNS_6__lessImmEEEERKT_S5_S5_T0_, symObjAddr: 0x2128, symBinAddr: 0x100003E00, symSize: 0x54 }
  - { offsetInCU: 0x8B91, offset: 0xB857, size: 0x8, addend: 0x0, symName: __ZNSt3__120__throw_length_errorB7v160006EPKc, symObjAddr: 0x2208, symBinAddr: 0x100003EE0, symSize: 0x64 }
  - { offsetInCU: 0x8BB9, offset: 0xB87F, size: 0x8, addend: 0x0, symName: __ZNSt3__117__libcpp_allocateB7v160006Emm, symObjAddr: 0x23AC, symBinAddr: 0x100004084, symSize: 0x28 }
  - { offsetInCU: 0x8BF6, offset: 0xB8BC, size: 0x8, addend: 0x0, symName: __ZNSt3__121__libcpp_operator_newB7v160006IJmEEEPvDpT_, symObjAddr: 0x23D4, symBinAddr: 0x1000040AC, symSize: 0x24 }
  - { offsetInCU: 0x8C2F, offset: 0xB8F5, size: 0x8, addend: 0x0, symName: __ZNSt3__112__to_addressB7v160006INS_12basic_stringIcNS_11char_traitsIcEENS_9allocatorIcEEEEEEPT_S8_, symObjAddr: 0x24F0, symBinAddr: 0x1000041C8, symSize: 0x14 }
  - { offsetInCU: 0x8C64, offset: 0xB92A, size: 0x8, addend: 0x0, symName: __ZNSt3__118__debug_db_erase_cB7v160006INS_6vectorINS_12basic_stringIcNS_11char_traitsIcEENS_9allocatorIcEEEENS5_IS7_EEEEEEvPT_, symObjAddr: 0x2854, symBinAddr: 0x10000452C, symSize: 0x10 }
  - { offsetInCU: 0x8C95, offset: 0xB95B, size: 0x8, addend: 0x0, symName: __ZNSt3__122__make_exception_guardB7v160006INS_6vectorINS1_INS_12basic_stringIcNS_11char_traitsIcEENS_9allocatorIcEEEENS5_IS7_EEEENS5_IS9_EEE16__destroy_vectorEEENS_28__exception_guard_exceptionsIT_EESE_, symObjAddr: 0x2B78, symBinAddr: 0x100004850, symSize: 0x40 }
  - { offsetInCU: 0x8CCA, offset: 0xB990, size: 0x8, addend: 0x0, symName: __ZNSt3__119__allocate_at_leastB7v160006INS_9allocatorINS_6vectorINS_12basic_stringIcNS_11char_traitsIcEENS1_IcEEEENS1_IS7_EEEEEEEENS_19__allocation_resultINS_16allocator_traitsIT_E7pointerEEERSD_m, symObjAddr: 0x2E74, symBinAddr: 0x100004B4C, symSize: 0x40 }
  - { offsetInCU: 0x8D0D, offset: 0xB9D3, size: 0x8, addend: 0x0, symName: __ZNSt3__130__uninitialized_allocator_copyB7v160006INS_9allocatorINS_12basic_stringIcNS_11char_traitsIcEENS1_IcEEEEEEPS6_S8_S8_EET2_RT_T0_T1_S9_, symObjAddr: 0x34A4, symBinAddr: 0x10000517C, symSize: 0xFC }
  - { offsetInCU: 0x8DAB, offset: 0xBA71, size: 0x8, addend: 0x0, symName: __ZNSt3__122__make_exception_guardB7v160006INS_29_AllocatorDestroyRangeReverseINS_9allocatorINS_12basic_stringIcNS_11char_traitsIcEENS2_IcEEEEEEPS7_EEEENS_28__exception_guard_exceptionsIT_EESC_, symObjAddr: 0x35A0, symBinAddr: 0x100005278, symSize: 0x4C }
  - { offsetInCU: 0x8DE1, offset: 0xBAA7, size: 0x8, addend: 0x0, symName: __ZNSt3__119__allocator_destroyB7v160006INS_9allocatorINS_12basic_stringIcNS_11char_traitsIcEENS1_IcEEEEEENS_16reverse_iteratorIPS6_EESA_EEvRT_T0_T1_, symObjAddr: 0x3828, symBinAddr: 0x100005500, symSize: 0x70 }
  - { offsetInCU: 0x8E44, offset: 0xBB0A, size: 0x8, addend: 0x0, symName: __ZNSt3__1neB7v160006IPNS_12basic_stringIcNS_11char_traitsIcEENS_9allocatorIcEEEES7_EEbRKNS_16reverse_iteratorIT_EERKNS8_IT0_EE, symObjAddr: 0x38CC, symBinAddr: 0x1000055A4, symSize: 0x48 }
  - { offsetInCU: 0x8E90, offset: 0xBB56, size: 0x8, addend: 0x0, symName: __ZNSt3__112__to_addressB7v160006INS_16reverse_iteratorIPNS_12basic_stringIcNS_11char_traitsIcEENS_9allocatorIcEEEEEEvEENS_5decayIDTclsr19__to_address_helperIT_EE6__callclsr3stdE7declvalIRKSB_EEEEE4typeESD_, symObjAddr: 0x3914, symBinAddr: 0x1000055EC, symSize: 0x24 }
  - { offsetInCU: 0x8EEF, offset: 0xBBB5, size: 0x8, addend: 0x0, symName: __ZNSt3__115__debug_db_swapB7v160006INS_6vectorINS1_INS_12basic_stringIcNS_11char_traitsIcEENS_9allocatorIcEEEENS5_IS7_EEEENS5_IS9_EEEEEEvPT_SD_, symObjAddr: 0x3BF4, symBinAddr: 0x1000058CC, symSize: 0x14 }
  - { offsetInCU: 0x8F2E, offset: 0xBBF4, size: 0x8, addend: 0x0, symName: __ZNSt3__125__debug_db_invalidate_allB7v160006INS_6vectorINS1_INS_12basic_stringIcNS_11char_traitsIcEENS_9allocatorIcEEEENS5_IS7_EEEENS5_IS9_EEEEEEvPT_, symObjAddr: 0x3D40, symBinAddr: 0x100005A18, symSize: 0x10 }
  - { offsetInCU: 0x8F5F, offset: 0xBC25, size: 0x8, addend: 0x0, symName: __ZNSt3__116__pad_and_outputB7v160006IcNS_11char_traitsIcEEEENS_19ostreambuf_iteratorIT_T0_EES6_PKS4_S8_S8_RNS_8ios_baseES4_, symObjAddr: 0x3F98, symBinAddr: 0x100005C70, symSize: 0x248 }
  - { offsetInCU: 0x902E, offset: 0xBCF4, size: 0x8, addend: 0x0, symName: __ZNSt3__112__to_addressB7v160006IKcEEPT_S3_, symObjAddr: 0x4418, symBinAddr: 0x1000060F0, symSize: 0x14 }
  - { offsetInCU: 0x9096, offset: 0xBD5C, size: 0x8, addend: 0x0, symName: __ZNSt3__19use_facetB7v160006INS_5ctypeIcEEEERKT_RKNS_6localeE, symObjAddr: 0x46F0, symBinAddr: 0x1000063C8, symSize: 0x2C }
  - { offsetInCU: 0x9565, offset: 0xC22B, size: 0x8, addend: 0x0, symName: __ZNSt3__1eqB7v160006IPNS_6vectorINS_12basic_stringIcNS_11char_traitsIcEENS_9allocatorIcEEEENS5_IS7_EEEEEEbRKNS_11__wrap_iterIT_EESF_, symObjAddr: 0x481C, symBinAddr: 0x1000064F4, symSize: 0x48 }
  - { offsetInCU: 0x95A8, offset: 0xC26E, size: 0x8, addend: 0x0, symName: __ZNSt3__1eqB7v160006IPKNS_12basic_stringIcNS_11char_traitsIcEENS_9allocatorIcEEEEEEbRKNS_11__wrap_iterIT_EESD_, symObjAddr: 0x4910, symBinAddr: 0x1000065E8, symSize: 0x48 }
  - { offsetInCU: 0x95EB, offset: 0xC2B1, size: 0x8, addend: 0x0, symName: __ZNSt3__1eqB7v160006IcNS_11char_traitsIcEENS_9allocatorIcEEEEbRKNS_12basic_stringIT_T0_T1_EEPKS6_, symObjAddr: 0x4970, symBinAddr: 0x100006648, symSize: 0xC0 }
  - { offsetInCU: 0x9652, offset: 0xC318, size: 0x8, addend: 0x0, symName: __ZNSt3__110__str_findB7v160006IcmNS_11char_traitsIcEELm18446744073709551615EEET0_PKT_S3_S6_S3_S3_, symObjAddr: 0x4AE0, symBinAddr: 0x1000067B8, symSize: 0xE4 }
  - { offsetInCU: 0x96F9, offset: 0xC3BF, size: 0x8, addend: 0x0, symName: __ZNSt3__118__search_substringB7v160006IcNS_11char_traitsIcEEEEPKT_S5_S5_S5_S5_, symObjAddr: 0x4BC4, symBinAddr: 0x10000689C, symSize: 0x154 }
  - { offsetInCU: 0x9793, offset: 0xC459, size: 0x8, addend: 0x0, symName: __ZNSt3__123__constexpr_char_memchrB7v160006EPKcim, symObjAddr: 0x4E1C, symBinAddr: 0x100006AF4, symSize: 0x34 }
  - { offsetInCU: 0x97DB, offset: 0xC4A1, size: 0x8, addend: 0x0, symName: __ZNSt3__118__constexpr_memcmpB7v160006IcEEiPKT_S3_m, symObjAddr: 0x4E50, symBinAddr: 0x100006B28, symSize: 0x34 }
  - { offsetInCU: 0x982C, offset: 0xC4F2, size: 0x8, addend: 0x0, symName: __ZNSt3__130__uninitialized_allocator_copyB7v160006INS_9allocatorINS_6vectorINS_12basic_stringIcNS_11char_traitsIcEENS1_IcEEEENS1_IS7_EEEEEEPS9_SB_SB_EET2_RT_T0_T1_SC_, symObjAddr: 0x50D8, symBinAddr: 0x100006DB0, symSize: 0xFC }
  - { offsetInCU: 0x98CA, offset: 0xC590, size: 0x8, addend: 0x0, symName: __ZNSt3__122__make_exception_guardB7v160006INS_29_AllocatorDestroyRangeReverseINS_9allocatorINS_6vectorINS_12basic_stringIcNS_11char_traitsIcEENS2_IcEEEENS2_IS8_EEEEEEPSA_EEEENS_28__exception_guard_exceptionsIT_EESF_, symObjAddr: 0x51D4, symBinAddr: 0x100006EAC, symSize: 0x4C }
  - { offsetInCU: 0x9900, offset: 0xC5C6, size: 0x8, addend: 0x0, symName: __ZNSt3__119__allocator_destroyB7v160006INS_9allocatorINS_6vectorINS_12basic_stringIcNS_11char_traitsIcEENS1_IcEEEENS1_IS7_EEEEEENS_16reverse_iteratorIPS9_EESD_EEvRT_T0_T1_, symObjAddr: 0x545C, symBinAddr: 0x100007134, symSize: 0x70 }
  - { offsetInCU: 0x9963, offset: 0xC629, size: 0x8, addend: 0x0, symName: __ZNSt3__1neB7v160006IPNS_6vectorINS_12basic_stringIcNS_11char_traitsIcEENS_9allocatorIcEEEENS5_IS7_EEEESA_EEbRKNS_16reverse_iteratorIT_EERKNSB_IT0_EE, symObjAddr: 0x5500, symBinAddr: 0x1000071D8, symSize: 0x48 }
  - { offsetInCU: 0x99AF, offset: 0xC675, size: 0x8, addend: 0x0, symName: __ZNSt3__112__to_addressB7v160006INS_16reverse_iteratorIPNS_6vectorINS_12basic_stringIcNS_11char_traitsIcEENS_9allocatorIcEEEENS6_IS8_EEEEEEvEENS_5decayIDTclsr19__to_address_helperIT_EE6__callclsr3stdE7declvalIRKSE_EEEEE4typeESG_, symObjAddr: 0x5548, symBinAddr: 0x100007220, symSize: 0x24 }
  - { offsetInCU: 0x9BDF, offset: 0xC8A5, size: 0x8, addend: 0x0, symName: __ZSt28__throw_bad_array_new_lengthB7v160006v, symObjAddr: 0x2378, symBinAddr: 0x100004050, symSize: 0x34 }
  - { offsetInCU: 0xC15D, offset: 0xEE23, size: 0x8, addend: 0x0, symName: __ZN5BoardC2Ev, symObjAddr: 0x0, symBinAddr: 0x100001CD8, symSize: 0x284 }
  - { offsetInCU: 0xC1A3, offset: 0xEE69, size: 0x8, addend: 0x0, symName: __ZNSt3__112basic_stringIcNS_11char_traitsIcEENS_9allocatorIcEEEC1B7v160006IDnEEPKc, symObjAddr: 0x284, symBinAddr: 0x100001F5C, symSize: 0x34 }
  - { offsetInCU: 0xC357, offset: 0xF01D, size: 0x8, addend: 0x0, symName: __ZN6ConfigD1Ev, symObjAddr: 0x2C4, symBinAddr: 0x100001F9C, symSize: 0x2C }
  - { offsetInCU: 0xC383, offset: 0xF049, size: 0x8, addend: 0x0, symName: __ZNSt3__14pairIiiEC1B7v160006Ev, symObjAddr: 0x2F0, symBinAddr: 0x100001FC8, symSize: 0x2C }
  - { offsetInCU: 0xC3AD, offset: 0xF073, size: 0x8, addend: 0x0, symName: __ZNSt3__16vectorINS0_INS_12basic_stringIcNS_11char_traitsIcEENS_9allocatorIcEEEENS4_IS6_EEEENS4_IS8_EEEC1B7v160006Ev, symObjAddr: 0x31C, symBinAddr: 0x100001FF4, symSize: 0x2C }
  - { offsetInCU: 0xC3D7, offset: 0xF09D, size: 0x8, addend: 0x0, symName: __ZNSt3__14pairIiiEaSB7v160006ERKS1_, symObjAddr: 0x348, symBinAddr: 0x100002020, symSize: 0x30 }
  - { offsetInCU: 0xC40B, offset: 0xF0D1, size: 0x8, addend: 0x0, symName: __ZNSt3__16vectorINS_12basic_stringIcNS_11char_traitsIcEENS_9allocatorIcEEEENS4_IS6_EEEC1EmRKS6_, symObjAddr: 0x378, symBinAddr: 0x100002050, symSize: 0x3C }
  - { offsetInCU: 0xC455, offset: 0xF11B, size: 0x8, addend: 0x0, symName: __ZNSt3__16vectorINS0_INS_12basic_stringIcNS_11char_traitsIcEENS_9allocatorIcEEEENS4_IS6_EEEENS4_IS8_EEEC1EmRKS8_, symObjAddr: 0x3B4, symBinAddr: 0x10000208C, symSize: 0x3C }
  - { offsetInCU: 0xC49F, offset: 0xF165, size: 0x8, addend: 0x0, symName: __ZNSt3__16vectorINS0_INS_12basic_stringIcNS_11char_traitsIcEENS_9allocatorIcEEEENS4_IS6_EEEENS4_IS8_EEEaSB7v160006EOSA_, symObjAddr: 0x3F0, symBinAddr: 0x1000020C8, symSize: 0x34 }
  - { offsetInCU: 0xC4D6, offset: 0xF19C, size: 0x8, addend: 0x0, symName: __ZNSt3__16vectorINS0_INS_12basic_stringIcNS_11char_traitsIcEENS_9allocatorIcEEEENS4_IS6_EEEENS4_IS8_EEED1B7v160006Ev, symObjAddr: 0x424, symBinAddr: 0x1000020FC, symSize: 0x2C }
  - { offsetInCU: 0xC500, offset: 0xF1C6, size: 0x8, addend: 0x0, symName: __ZNSt3__16vectorINS_12basic_stringIcNS_11char_traitsIcEENS_9allocatorIcEEEENS4_IS6_EEED1B7v160006Ev, symObjAddr: 0x450, symBinAddr: 0x100002128, symSize: 0x2C }
  - { offsetInCU: 0xC52A, offset: 0xF1F0, size: 0x8, addend: 0x0, symName: __ZN5BoardC1Ev, symObjAddr: 0x47C, symBinAddr: 0x100002154, symSize: 0x2C }
  - { offsetInCU: 0xC556, offset: 0xF21C, size: 0x8, addend: 0x0, symName: __ZN5Board10printBoardEv, symObjAddr: 0x4A8, symBinAddr: 0x100002180, symSize: 0x1D0 }
  - { offsetInCU: 0xC610, offset: 0xF2D6, size: 0x8, addend: 0x0, symName: __ZNSt3__113basic_ostreamIcNS_11char_traitsIcEEElsB7v160006EPFRS3_S4_E, symObjAddr: 0x6C0, symBinAddr: 0x100002398, symSize: 0x2C }
  - { offsetInCU: 0xC644, offset: 0xF30A, size: 0x8, addend: 0x0, symName: __ZNSt3__16vectorINS0_INS_12basic_stringIcNS_11char_traitsIcEENS_9allocatorIcEEEENS4_IS6_EEEENS4_IS8_EEE5beginB7v160006Ev, symObjAddr: 0x744, symBinAddr: 0x10000241C, symSize: 0x30 }
  - { offsetInCU: 0xC66C, offset: 0xF332, size: 0x8, addend: 0x0, symName: __ZNSt3__16vectorINS0_INS_12basic_stringIcNS_11char_traitsIcEENS_9allocatorIcEEEENS4_IS6_EEEENS4_IS8_EEE3endB7v160006Ev, symObjAddr: 0x774, symBinAddr: 0x10000244C, symSize: 0x30 }
  - { offsetInCU: 0xC694, offset: 0xF35A, size: 0x8, addend: 0x0, symName: __ZNKSt3__111__wrap_iterIPNS_6vectorINS_12basic_stringIcNS_11char_traitsIcEENS_9allocatorIcEEEENS5_IS7_EEEEEdeB7v160006Ev, symObjAddr: 0x7D8, symBinAddr: 0x1000024B0, symSize: 0x18 }
  - { offsetInCU: 0xC6BA, offset: 0xF380, size: 0x8, addend: 0x0, symName: __ZNKSt3__16vectorINS_12basic_stringIcNS_11char_traitsIcEENS_9allocatorIcEEEENS4_IS6_EEE5beginB7v160006Ev, symObjAddr: 0x7F0, symBinAddr: 0x1000024C8, symSize: 0x30 }
  - { offsetInCU: 0xC6E2, offset: 0xF3A8, size: 0x8, addend: 0x0, symName: __ZNKSt3__16vectorINS_12basic_stringIcNS_11char_traitsIcEENS_9allocatorIcEEEENS4_IS6_EEE3endB7v160006Ev, symObjAddr: 0x820, symBinAddr: 0x1000024F8, symSize: 0x30 }
  - { offsetInCU: 0xC70A, offset: 0xF3D0, size: 0x8, addend: 0x0, symName: __ZNKSt3__111__wrap_iterIPKNS_12basic_stringIcNS_11char_traitsIcEENS_9allocatorIcEEEEEdeB7v160006Ev, symObjAddr: 0x884, symBinAddr: 0x10000255C, symSize: 0x18 }
  - { offsetInCU: 0xC730, offset: 0xF3F6, size: 0x8, addend: 0x0, symName: __ZNSt3__111__wrap_iterIPKNS_12basic_stringIcNS_11char_traitsIcEENS_9allocatorIcEEEEEppB7v160006Ev, symObjAddr: 0x91C, symBinAddr: 0x1000025F4, symSize: 0x20 }
  - { offsetInCU: 0xC756, offset: 0xF41C, size: 0x8, addend: 0x0, symName: __ZNSt3__111__wrap_iterIPNS_6vectorINS_12basic_stringIcNS_11char_traitsIcEENS_9allocatorIcEEEENS5_IS7_EEEEEppB7v160006Ev, symObjAddr: 0x93C, symBinAddr: 0x100002614, symSize: 0x20 }
  - { offsetInCU: 0xC77C, offset: 0xF442, size: 0x8, addend: 0x0, symName: __ZN5Board10boatRemoveENSt3__16vectorINS1_INS0_12basic_stringIcNS0_11char_traitsIcEENS0_9allocatorIcEEEENS5_IS7_EEEENS5_IS9_EEEES7_, symObjAddr: 0x95C, symBinAddr: 0x100002634, symSize: 0x138 }
  - { offsetInCU: 0xC884, offset: 0xF54A, size: 0x8, addend: 0x0, symName: __ZNKSt3__112basic_stringIcNS_11char_traitsIcEENS_9allocatorIcEEE4findB7v160006ERKS5_m, symObjAddr: 0xA94, symBinAddr: 0x10000276C, symSize: 0x78 }
  - { offsetInCU: 0xC8CA, offset: 0xF590, size: 0x8, addend: 0x0, symName: __ZNSt3__16vectorINS0_INS_12basic_stringIcNS_11char_traitsIcEENS_9allocatorIcEEEENS4_IS6_EEEENS4_IS8_EEEixB7v160006Em, symObjAddr: 0xB0C, symBinAddr: 0x1000027E4, symSize: 0x2C }
  - { offsetInCU: 0xC901, offset: 0xF5C7, size: 0x8, addend: 0x0, symName: __ZNSt3__16vectorINS_12basic_stringIcNS_11char_traitsIcEENS_9allocatorIcEEEENS4_IS6_EEEixB7v160006Em, symObjAddr: 0xB38, symBinAddr: 0x100002810, symSize: 0x2C }
  - { offsetInCU: 0xC938, offset: 0xF5FE, size: 0x8, addend: 0x0, symName: __ZNSt3__112basic_stringIcNS_11char_traitsIcEENS_9allocatorIcEEEaSB7v160006EPKc, symObjAddr: 0xB64, symBinAddr: 0x10000283C, symSize: 0x2C }
  - { offsetInCU: 0xC96D, offset: 0xF633, size: 0x8, addend: 0x0, symName: __ZN5Board5shootENSt3__14pairIiiEE, symObjAddr: 0xB90, symBinAddr: 0x100002868, symSize: 0x60 }
  - { offsetInCU: 0xC9A3, offset: 0xF669, size: 0x8, addend: 0x0, symName: __ZNSt3__16vectorINS0_INS_12basic_stringIcNS_11char_traitsIcEENS_9allocatorIcEEEENS4_IS6_EEEENS4_IS8_EEEC1ERKSA_, symObjAddr: 0xBF0, symBinAddr: 0x1000028C8, symSize: 0x34 }
  - { offsetInCU: 0xC9DE, offset: 0xF6A4, size: 0x8, addend: 0x0, symName: __ZN5Board11inputCoordsEv, symObjAddr: 0xC24, symBinAddr: 0x1000028FC, symSize: 0xB4 }
  - { offsetInCU: 0xCA30, offset: 0xF6F6, size: 0x8, addend: 0x0, symName: __ZN5Board6wasHitENSt3__14pairIiiEENS0_6vectorINS3_INS0_12basic_stringIcNS0_11char_traitsIcEENS0_9allocatorIcEEEENS7_IS9_EEEENS7_ISB_EEEESD_, symObjAddr: 0xD0C, symBinAddr: 0x1000029E4, symSize: 0x264 }
  - { offsetInCU: 0xCAB0, offset: 0xF776, size: 0x8, addend: 0x0, symName: __ZNSt3__14pairINS_6vectorINS1_INS_12basic_stringIcNS_11char_traitsIcEENS_9allocatorIcEEEENS5_IS7_EEEENS5_IS9_EEEESB_ED1Ev, symObjAddr: 0xFB0, symBinAddr: 0x100002C88, symSize: 0x2C }
  - { offsetInCU: 0xCADB, offset: 0xF7A1, size: 0x8, addend: 0x0, symName: __Z12randomCoordsNSt3__14pairIiiEE, symObjAddr: 0xFDC, symBinAddr: 0x100002CB4, symSize: 0x50 }
  - { offsetInCU: 0xCB24, offset: 0xF7EA, size: 0x8, addend: 0x0, symName: __ZN6ConfigD2Ev, symObjAddr: 0x102C, symBinAddr: 0x100002D04, symSize: 0x2C }
  - { offsetInCU: 0xCB50, offset: 0xF816, size: 0x8, addend: 0x0, symName: __ZNSt3__14pairINS_6vectorINS1_INS_12basic_stringIcNS_11char_traitsIcEENS_9allocatorIcEEEENS5_IS7_EEEENS5_IS9_EEEESB_ED2Ev, symObjAddr: 0x1058, symBinAddr: 0x100002D30, symSize: 0x68 }
  - { offsetInCU: 0xCB7C, offset: 0xF842, size: 0x8, addend: 0x0, symName: __ZNSt3__112basic_stringIcNS_11char_traitsIcEENS_9allocatorIcEEEC2B7v160006IDnEEPKc, symObjAddr: 0x10C0, symBinAddr: 0x100002D98, symSize: 0x60 }
  - { offsetInCU: 0xCBC0, offset: 0xF886, size: 0x8, addend: 0x0, symName: __ZNSt3__117__compressed_pairINS_12basic_stringIcNS_11char_traitsIcEENS_9allocatorIcEEE5__repES5_EC1B7v160006INS_18__default_init_tagESA_EEOT_OT0_, symObjAddr: 0x1120, symBinAddr: 0x100002DF8, symSize: 0x3C }
  - { offsetInCU: 0xCC18, offset: 0xF8DE, size: 0x8, addend: 0x0, symName: __ZNSt3__111char_traitsIcE6lengthEPKc, symObjAddr: 0x115C, symBinAddr: 0x100002E34, symSize: 0x48 }
  - { offsetInCU: 0xCC3B, offset: 0xF901, size: 0x8, addend: 0x0, symName: __ZNSt3__117__compressed_pairINS_12basic_stringIcNS_11char_traitsIcEENS_9allocatorIcEEE5__repES5_EC2B7v160006INS_18__default_init_tagESA_EEOT_OT0_, symObjAddr: 0x11B4, symBinAddr: 0x100002E8C, symSize: 0x3C }
  - { offsetInCU: 0xCC93, offset: 0xF959, size: 0x8, addend: 0x0, symName: __ZNSt3__122__compressed_pair_elemINS_12basic_stringIcNS_11char_traitsIcEENS_9allocatorIcEEE5__repELi0ELb0EEC2B7v160006ENS_18__default_init_tagE, symObjAddr: 0x11F0, symBinAddr: 0x100002EC8, symSize: 0x14 }
  - { offsetInCU: 0xCCC8, offset: 0xF98E, size: 0x8, addend: 0x0, symName: __ZNSt3__122__compressed_pair_elemINS_9allocatorIcEELi1ELb1EEC2B7v160006ENS_18__default_init_tagE, symObjAddr: 0x1204, symBinAddr: 0x100002EDC, symSize: 0x2C }
  - { offsetInCU: 0xCCFD, offset: 0xF9C3, size: 0x8, addend: 0x0, symName: __ZNSt3__19allocatorIcEC2B7v160006Ev, symObjAddr: 0x1230, symBinAddr: 0x100002F08, symSize: 0x2C }
  - { offsetInCU: 0xCD27, offset: 0xF9ED, size: 0x8, addend: 0x0, symName: __ZNSt3__116__non_trivial_ifILb1ENS_9allocatorIcEEEC2B7v160006Ev, symObjAddr: 0x125C, symBinAddr: 0x100002F34, symSize: 0x14 }
  - { offsetInCU: 0xCD51, offset: 0xFA17, size: 0x8, addend: 0x0, symName: __ZNSt3__14pairIiiEC2B7v160006Ev, symObjAddr: 0x1294, symBinAddr: 0x100002F6C, symSize: 0x1C }
  - { offsetInCU: 0xCD7B, offset: 0xFA41, size: 0x8, addend: 0x0, symName: __ZNSt3__16vectorINS0_INS_12basic_stringIcNS_11char_traitsIcEENS_9allocatorIcEEEENS4_IS6_EEEENS4_IS8_EEEC2B7v160006Ev, symObjAddr: 0x12B0, symBinAddr: 0x100002F88, symSize: 0x4C }
  - { offsetInCU: 0xCDAB, offset: 0xFA71, size: 0x8, addend: 0x0, symName: __ZNSt3__117__compressed_pairIPNS_6vectorINS_12basic_stringIcNS_11char_traitsIcEENS_9allocatorIcEEEENS5_IS7_EEEENS5_IS9_EEEC1B7v160006IDnNS_18__default_init_tagEEEOT_OT0_, symObjAddr: 0x12FC, symBinAddr: 0x100002FD4, symSize: 0x3C }
  - { offsetInCU: 0xCE03, offset: 0xFAC9, size: 0x8, addend: 0x0, symName: __ZNSt3__117__compressed_pairIPNS_6vectorINS_12basic_stringIcNS_11char_traitsIcEENS_9allocatorIcEEEENS5_IS7_EEEENS5_IS9_EEEC2B7v160006IDnNS_18__default_init_tagEEEOT_OT0_, symObjAddr: 0x1348, symBinAddr: 0x100003020, symSize: 0x40 }
  - { offsetInCU: 0xCE5B, offset: 0xFB21, size: 0x8, addend: 0x0, symName: __ZNSt3__122__compressed_pair_elemIPNS_6vectorINS_12basic_stringIcNS_11char_traitsIcEENS_9allocatorIcEEEENS5_IS7_EEEELi0ELb0EEC2B7v160006IDnvEEOT_, symObjAddr: 0x1388, symBinAddr: 0x100003060, symSize: 0x1C }
  - { offsetInCU: 0xCE9D, offset: 0xFB63, size: 0x8, addend: 0x0, symName: __ZNSt3__122__compressed_pair_elemINS_9allocatorINS_6vectorINS_12basic_stringIcNS_11char_traitsIcEENS1_IcEEEENS1_IS7_EEEEEELi1ELb1EEC2B7v160006ENS_18__default_init_tagE, symObjAddr: 0x13A4, symBinAddr: 0x10000307C, symSize: 0x2C }
  - { offsetInCU: 0xCED2, offset: 0xFB98, size: 0x8, addend: 0x0, symName: __ZNSt3__19allocatorINS_6vectorINS_12basic_stringIcNS_11char_traitsIcEENS0_IcEEEENS0_IS6_EEEEEC2B7v160006Ev, symObjAddr: 0x13D0, symBinAddr: 0x1000030A8, symSize: 0x2C }
  - { offsetInCU: 0xCEFC, offset: 0xFBC2, size: 0x8, addend: 0x0, symName: __ZNSt3__116__non_trivial_ifILb1ENS_9allocatorINS_6vectorINS_12basic_stringIcNS_11char_traitsIcEENS1_IcEEEENS1_IS7_EEEEEEEC2B7v160006Ev, symObjAddr: 0x13FC, symBinAddr: 0x1000030D4, symSize: 0x14 }
  - { offsetInCU: 0xCF26, offset: 0xFBEC, size: 0x8, addend: 0x0, symName: __ZNSt3__16vectorINS0_INS_12basic_stringIcNS_11char_traitsIcEENS_9allocatorIcEEEENS4_IS6_EEEENS4_IS8_EEED2B7v160006Ev, symObjAddr: 0x1410, symBinAddr: 0x1000030E8, symSize: 0x3C }
  - { offsetInCU: 0xCF50, offset: 0xFC16, size: 0x8, addend: 0x0, symName: __ZNSt3__16vectorINS0_INS_12basic_stringIcNS_11char_traitsIcEENS_9allocatorIcEEEENS4_IS6_EEEENS4_IS8_EEE16__destroy_vectorC1ERSA_, symObjAddr: 0x144C, symBinAddr: 0x100003124, symSize: 0x34 }
  - { offsetInCU: 0xCF89, offset: 0xFC4F, size: 0x8, addend: 0x0, symName: __ZNSt3__16vectorINS0_INS_12basic_stringIcNS_11char_traitsIcEENS_9allocatorIcEEEENS4_IS6_EEEENS4_IS8_EEE16__destroy_vectorclB7v160006Ev, symObjAddr: 0x1480, symBinAddr: 0x100003158, symSize: 0x9C }
  - { offsetInCU: 0xCFAF, offset: 0xFC75, size: 0x8, addend: 0x0, symName: __ZNSt3__16vectorINS0_INS_12basic_stringIcNS_11char_traitsIcEENS_9allocatorIcEEEENS4_IS6_EEEENS4_IS8_EEE16__destroy_vectorC2ERSA_, symObjAddr: 0x151C, symBinAddr: 0x1000031F4, symSize: 0x20 }
  - { offsetInCU: 0xCFE8, offset: 0xFCAE, size: 0x8, addend: 0x0, symName: __ZNKSt3__16vectorINS0_INS_12basic_stringIcNS_11char_traitsIcEENS_9allocatorIcEEEENS4_IS6_EEEENS4_IS8_EEE17__annotate_deleteB7v160006Ev, symObjAddr: 0x153C, symBinAddr: 0x100003214, symSize: 0xD4 }
  - { offsetInCU: 0xD00E, offset: 0xFCD4, size: 0x8, addend: 0x0, symName: __ZNSt3__16vectorINS0_INS_12basic_stringIcNS_11char_traitsIcEENS_9allocatorIcEEEENS4_IS6_EEEENS4_IS8_EEE7__clearB7v160006Ev, symObjAddr: 0x1620, symBinAddr: 0x1000032F8, symSize: 0x28 }
  - { offsetInCU: 0xD034, offset: 0xFCFA, size: 0x8, addend: 0x0, symName: __ZNSt3__116allocator_traitsINS_9allocatorINS_6vectorINS_12basic_stringIcNS_11char_traitsIcEENS1_IcEEEENS1_IS7_EEEEEEE10deallocateB7v160006ERSA_PS9_m, symObjAddr: 0x1648, symBinAddr: 0x100003320, symSize: 0x34 }
  - { offsetInCU: 0xD076, offset: 0xFD3C, size: 0x8, addend: 0x0, symName: __ZNSt3__16vectorINS0_INS_12basic_stringIcNS_11char_traitsIcEENS_9allocatorIcEEEENS4_IS6_EEEENS4_IS8_EEE7__allocB7v160006Ev, symObjAddr: 0x167C, symBinAddr: 0x100003354, symSize: 0x28 }
  - { offsetInCU: 0xD09C, offset: 0xFD62, size: 0x8, addend: 0x0, symName: __ZNKSt3__16vectorINS0_INS_12basic_stringIcNS_11char_traitsIcEENS_9allocatorIcEEEENS4_IS6_EEEENS4_IS8_EEE8capacityB7v160006Ev, symObjAddr: 0x16A4, symBinAddr: 0x10000337C, symSize: 0x40 }
  - { offsetInCU: 0xD0C2, offset: 0xFD88, size: 0x8, addend: 0x0, symName: __ZNKSt3__16vectorINS0_INS_12basic_stringIcNS_11char_traitsIcEENS_9allocatorIcEEEENS4_IS6_EEEENS4_IS8_EEE31__annotate_contiguous_containerB7v160006EPKvSC_SC_SC_, symObjAddr: 0x16E4, symBinAddr: 0x1000033BC, symSize: 0x20 }
  - { offsetInCU: 0xD118, offset: 0xFDDE, size: 0x8, addend: 0x0, symName: __ZNKSt3__16vectorINS0_INS_12basic_stringIcNS_11char_traitsIcEENS_9allocatorIcEEEENS4_IS6_EEEENS4_IS8_EEE4dataB7v160006Ev, symObjAddr: 0x1704, symBinAddr: 0x1000033DC, symSize: 0x28 }
  - { offsetInCU: 0xD13E, offset: 0xFE04, size: 0x8, addend: 0x0, symName: __ZNKSt3__16vectorINS0_INS_12basic_stringIcNS_11char_traitsIcEENS_9allocatorIcEEEENS4_IS6_EEEENS4_IS8_EEE4sizeB7v160006Ev, symObjAddr: 0x172C, symBinAddr: 0x100003404, symSize: 0x28 }
  - { offsetInCU: 0xD164, offset: 0xFE2A, size: 0x8, addend: 0x0, symName: __ZNSt3__16vectorINS0_INS_12basic_stringIcNS_11char_traitsIcEENS_9allocatorIcEEEENS4_IS6_EEEENS4_IS8_EEE22__base_destruct_at_endB7v160006EPS8_, symObjAddr: 0x1768, symBinAddr: 0x100003440, symSize: 0xA0 }
  - { offsetInCU: 0xD1A8, offset: 0xFE6E, size: 0x8, addend: 0x0, symName: __ZNSt3__116allocator_traitsINS_9allocatorINS_6vectorINS_12basic_stringIcNS_11char_traitsIcEENS1_IcEEEENS1_IS7_EEEEEEE7destroyB7v160006IS9_vEEvRSA_PT_, symObjAddr: 0x1808, symBinAddr: 0x1000034E0, symSize: 0x2C }
  - { offsetInCU: 0xD1E5, offset: 0xFEAB, size: 0x8, addend: 0x0, symName: __ZNSt3__19allocatorINS_6vectorINS_12basic_stringIcNS_11char_traitsIcEENS0_IcEEEENS0_IS6_EEEEE7destroyB7v160006EPS8_, symObjAddr: 0x1834, symBinAddr: 0x10000350C, symSize: 0x28 }
  - { offsetInCU: 0xD219, offset: 0xFEDF, size: 0x8, addend: 0x0, symName: __ZNSt3__19allocatorINS_6vectorINS_12basic_stringIcNS_11char_traitsIcEENS0_IcEEEENS0_IS6_EEEEE10deallocateB7v160006EPS8_m, symObjAddr: 0x185C, symBinAddr: 0x100003534, symSize: 0x74 }
  - { offsetInCU: 0xD25B, offset: 0xFF21, size: 0x8, addend: 0x0, symName: __ZNSt3__117__compressed_pairIPNS_6vectorINS_12basic_stringIcNS_11char_traitsIcEENS_9allocatorIcEEEENS5_IS7_EEEENS5_IS9_EEE6secondB7v160006Ev, symObjAddr: 0x1958, symBinAddr: 0x100003630, symSize: 0x24 }
  - { offsetInCU: 0xD281, offset: 0xFF47, size: 0x8, addend: 0x0, symName: __ZNSt3__122__compressed_pair_elemINS_9allocatorINS_6vectorINS_12basic_stringIcNS_11char_traitsIcEENS1_IcEEEENS1_IS7_EEEEEELi1ELb1EE5__getB7v160006Ev, symObjAddr: 0x197C, symBinAddr: 0x100003654, symSize: 0x14 }
  - { offsetInCU: 0xD2A7, offset: 0xFF6D, size: 0x8, addend: 0x0, symName: __ZNKSt3__16vectorINS0_INS_12basic_stringIcNS_11char_traitsIcEENS_9allocatorIcEEEENS4_IS6_EEEENS4_IS8_EEE9__end_capB7v160006Ev, symObjAddr: 0x1990, symBinAddr: 0x100003668, symSize: 0x28 }
  - { offsetInCU: 0xD2CD, offset: 0xFF93, size: 0x8, addend: 0x0, symName: __ZNKSt3__117__compressed_pairIPNS_6vectorINS_12basic_stringIcNS_11char_traitsIcEENS_9allocatorIcEEEENS5_IS7_EEEENS5_IS9_EEE5firstB7v160006Ev, symObjAddr: 0x19B8, symBinAddr: 0x100003690, symSize: 0x24 }
  - { offsetInCU: 0xD2F3, offset: 0xFFB9, size: 0x8, addend: 0x0, symName: __ZNKSt3__122__compressed_pair_elemIPNS_6vectorINS_12basic_stringIcNS_11char_traitsIcEENS_9allocatorIcEEEENS5_IS7_EEEELi0ELb0EE5__getB7v160006Ev, symObjAddr: 0x19DC, symBinAddr: 0x1000036B4, symSize: 0x14 }
  - { offsetInCU: 0xD319, offset: 0xFFDF, size: 0x8, addend: 0x0, symName: __ZNSt3__16vectorINS_12basic_stringIcNS_11char_traitsIcEENS_9allocatorIcEEEENS4_IS6_EEEC2EmRKS6_, symObjAddr: 0x19F0, symBinAddr: 0x1000036C8, symSize: 0xF0 }
  - { offsetInCU: 0xD378, offset: 0x1003E, size: 0x8, addend: 0x0, symName: __ZNSt3__117__compressed_pairIPNS_12basic_stringIcNS_11char_traitsIcEENS_9allocatorIcEEEENS4_IS6_EEEC1B7v160006IDnNS_18__default_init_tagEEEOT_OT0_, symObjAddr: 0x1AE0, symBinAddr: 0x1000037B8, symSize: 0x3C }
  - { offsetInCU: 0xD3D0, offset: 0x10096, size: 0x8, addend: 0x0, symName: __ZNSt3__16vectorINS_12basic_stringIcNS_11char_traitsIcEENS_9allocatorIcEEEENS4_IS6_EEE16__destroy_vectorC1ERS8_, symObjAddr: 0x1B5C, symBinAddr: 0x100003834, symSize: 0x34 }
  - { offsetInCU: 0xD409, offset: 0x100CF, size: 0x8, addend: 0x0, symName: __ZNSt3__16vectorINS_12basic_stringIcNS_11char_traitsIcEENS_9allocatorIcEEEENS4_IS6_EEE11__vallocateB7v160006Em, symObjAddr: 0x1BA0, symBinAddr: 0x100003878, symSize: 0xB4 }
  - { offsetInCU: 0xD44D, offset: 0x10113, size: 0x8, addend: 0x0, symName: __ZNSt3__16vectorINS_12basic_stringIcNS_11char_traitsIcEENS_9allocatorIcEEEENS4_IS6_EEE18__construct_at_endEmRKS6_, symObjAddr: 0x1C54, symBinAddr: 0x10000392C, symSize: 0xD8 }
  - { offsetInCU: 0xD4CF, offset: 0x10195, size: 0x8, addend: 0x0, symName: __ZNSt3__128__exception_guard_exceptionsINS_6vectorINS_12basic_stringIcNS_11char_traitsIcEENS_9allocatorIcEEEENS5_IS7_EEE16__destroy_vectorEE10__completeB7v160006Ev, symObjAddr: 0x1D2C, symBinAddr: 0x100003A04, symSize: 0x1C }
  - { offsetInCU: 0xD4F5, offset: 0x101BB, size: 0x8, addend: 0x0, symName: __ZNSt3__128__exception_guard_exceptionsINS_6vectorINS_12basic_stringIcNS_11char_traitsIcEENS_9allocatorIcEEEENS5_IS7_EEE16__destroy_vectorEED1B7v160006Ev, symObjAddr: 0x1D48, symBinAddr: 0x100003A20, symSize: 0x2C }
  - { offsetInCU: 0xD51F, offset: 0x101E5, size: 0x8, addend: 0x0, symName: __ZNSt3__117__compressed_pairIPNS_12basic_stringIcNS_11char_traitsIcEENS_9allocatorIcEEEENS4_IS6_EEEC2B7v160006IDnNS_18__default_init_tagEEEOT_OT0_, symObjAddr: 0x1D74, symBinAddr: 0x100003A4C, symSize: 0x40 }
  - { offsetInCU: 0xD577, offset: 0x1023D, size: 0x8, addend: 0x0, symName: __ZNSt3__122__compressed_pair_elemIPNS_12basic_stringIcNS_11char_traitsIcEENS_9allocatorIcEEEELi0ELb0EEC2B7v160006IDnvEEOT_, symObjAddr: 0x1DB4, symBinAddr: 0x100003A8C, symSize: 0x1C }
  - { offsetInCU: 0xD5B9, offset: 0x1027F, size: 0x8, addend: 0x0, symName: __ZNSt3__122__compressed_pair_elemINS_9allocatorINS_12basic_stringIcNS_11char_traitsIcEENS1_IcEEEEEELi1ELb1EEC2B7v160006ENS_18__default_init_tagE, symObjAddr: 0x1DD0, symBinAddr: 0x100003AA8, symSize: 0x2C }
  - { offsetInCU: 0xD5EE, offset: 0x102B4, size: 0x8, addend: 0x0, symName: __ZNSt3__19allocatorINS_12basic_stringIcNS_11char_traitsIcEENS0_IcEEEEEC2B7v160006Ev, symObjAddr: 0x1DFC, symBinAddr: 0x100003AD4, symSize: 0x2C }
  - { offsetInCU: 0xD618, offset: 0x102DE, size: 0x8, addend: 0x0, symName: __ZNSt3__116__non_trivial_ifILb1ENS_9allocatorINS_12basic_stringIcNS_11char_traitsIcEENS1_IcEEEEEEEC2B7v160006Ev, symObjAddr: 0x1E28, symBinAddr: 0x100003B00, symSize: 0x14 }
  - { offsetInCU: 0xD642, offset: 0x10308, size: 0x8, addend: 0x0, symName: __ZNSt3__128__exception_guard_exceptionsINS_6vectorINS_12basic_stringIcNS_11char_traitsIcEENS_9allocatorIcEEEENS5_IS7_EEE16__destroy_vectorEEC1B7v160006ESA_, symObjAddr: 0x1E3C, symBinAddr: 0x100003B14, symSize: 0x34 }
  - { offsetInCU: 0xD67A, offset: 0x10340, size: 0x8, addend: 0x0, symName: __ZNSt3__128__exception_guard_exceptionsINS_6vectorINS_12basic_stringIcNS_11char_traitsIcEENS_9allocatorIcEEEENS5_IS7_EEE16__destroy_vectorEEC2B7v160006ESA_, symObjAddr: 0x1E70, symBinAddr: 0x100003B48, symSize: 0x24 }
  - { offsetInCU: 0xD6B2, offset: 0x10378, size: 0x8, addend: 0x0, symName: __ZNSt3__16vectorINS_12basic_stringIcNS_11char_traitsIcEENS_9allocatorIcEEEENS4_IS6_EEE16__destroy_vectorC2ERS8_, symObjAddr: 0x1E94, symBinAddr: 0x100003B6C, symSize: 0x20 }
  - { offsetInCU: 0xD6EB, offset: 0x103B1, size: 0x8, addend: 0x0, symName: __ZNKSt3__16vectorINS_12basic_stringIcNS_11char_traitsIcEENS_9allocatorIcEEEENS4_IS6_EEE8max_sizeEv, symObjAddr: 0x1EB4, symBinAddr: 0x100003B8C, symSize: 0x74 }
  - { offsetInCU: 0xD713, offset: 0x103D9, size: 0x8, addend: 0x0, symName: __ZNKSt3__16vectorINS_12basic_stringIcNS_11char_traitsIcEENS_9allocatorIcEEEENS4_IS6_EEE20__throw_length_errorB7v160006Ev, symObjAddr: 0x1F28, symBinAddr: 0x100003C00, symSize: 0x1C }
  - { offsetInCU: 0xD739, offset: 0x103FF, size: 0x8, addend: 0x0, symName: __ZNSt3__16vectorINS_12basic_stringIcNS_11char_traitsIcEENS_9allocatorIcEEEENS4_IS6_EEE7__allocB7v160006Ev, symObjAddr: 0x1F84, symBinAddr: 0x100003C5C, symSize: 0x28 }
  - { offsetInCU: 0xD75F, offset: 0x10425, size: 0x8, addend: 0x0, symName: __ZNSt3__16vectorINS_12basic_stringIcNS_11char_traitsIcEENS_9allocatorIcEEEENS4_IS6_EEE9__end_capB7v160006Ev, symObjAddr: 0x1FAC, symBinAddr: 0x100003C84, symSize: 0x28 }
  - { offsetInCU: 0xD785, offset: 0x1044B, size: 0x8, addend: 0x0, symName: __ZNKSt3__16vectorINS_12basic_stringIcNS_11char_traitsIcEENS_9allocatorIcEEEENS4_IS6_EEE14__annotate_newB7v160006Em, symObjAddr: 0x1FD4, symBinAddr: 0x100003CAC, symSize: 0xC8 }
  - { offsetInCU: 0xD7C5, offset: 0x1048B, size: 0x8, addend: 0x0, symName: __ZNSt3__116allocator_traitsINS_9allocatorINS_12basic_stringIcNS_11char_traitsIcEENS1_IcEEEEEEE8max_sizeB7v160006IS7_vEEmRKS7_, symObjAddr: 0x20C8, symBinAddr: 0x100003DA0, symSize: 0x24 }
  - { offsetInCU: 0xD7F3, offset: 0x104B9, size: 0x8, addend: 0x0, symName: __ZNKSt3__16vectorINS_12basic_stringIcNS_11char_traitsIcEENS_9allocatorIcEEEENS4_IS6_EEE7__allocB7v160006Ev, symObjAddr: 0x20EC, symBinAddr: 0x100003DC4, symSize: 0x28 }
  - { offsetInCU: 0xD819, offset: 0x104DF, size: 0x8, addend: 0x0, symName: __ZNSt3__114numeric_limitsIlE3maxB7v160006Ev, symObjAddr: 0x2114, symBinAddr: 0x100003DEC, symSize: 0x14 }
  - { offsetInCU: 0xD842, offset: 0x10508, size: 0x8, addend: 0x0, symName: __ZNKSt3__16__lessImmEclB7v160006ERKmS3_, symObjAddr: 0x217C, symBinAddr: 0x100003E54, symSize: 0x34 }
  - { offsetInCU: 0xD884, offset: 0x1054A, size: 0x8, addend: 0x0, symName: __ZNKSt3__19allocatorINS_12basic_stringIcNS_11char_traitsIcEENS0_IcEEEEE8max_sizeB7v160006Ev, symObjAddr: 0x21B0, symBinAddr: 0x100003E88, symSize: 0x18 }
  - { offsetInCU: 0xD8AA, offset: 0x10570, size: 0x8, addend: 0x0, symName: __ZNKSt3__117__compressed_pairIPNS_12basic_stringIcNS_11char_traitsIcEENS_9allocatorIcEEEENS4_IS6_EEE6secondB7v160006Ev, symObjAddr: 0x21C8, symBinAddr: 0x100003EA0, symSize: 0x24 }
  - { offsetInCU: 0xD8D0, offset: 0x10596, size: 0x8, addend: 0x0, symName: __ZNKSt3__122__compressed_pair_elemINS_9allocatorINS_12basic_stringIcNS_11char_traitsIcEENS1_IcEEEEEELi1ELb1EE5__getB7v160006Ev, symObjAddr: 0x21EC, symBinAddr: 0x100003EC4, symSize: 0x14 }
  - { offsetInCU: 0xD8F6, offset: 0x105BC, size: 0x8, addend: 0x0, symName: __ZNSt3__123__libcpp_numeric_limitsIlLb1EE3maxB7v160006Ev, symObjAddr: 0x2200, symBinAddr: 0x100003ED8, symSize: 0x8 }
  - { offsetInCU: 0xD90A, offset: 0x105D0, size: 0x8, addend: 0x0, symName: __ZNSt12length_errorC1B7v160006EPKc, symObjAddr: 0x226C, symBinAddr: 0x100003F44, symSize: 0x34 }
  - { offsetInCU: 0xD942, offset: 0x10608, size: 0x8, addend: 0x0, symName: __ZNSt12length_errorC2B7v160006EPKc, symObjAddr: 0x22A0, symBinAddr: 0x100003F78, symSize: 0x4C }
  - { offsetInCU: 0xD97A, offset: 0x10640, size: 0x8, addend: 0x0, symName: __ZNSt3__19allocatorINS_12basic_stringIcNS_11char_traitsIcEENS0_IcEEEEE8allocateB7v160006Em, symObjAddr: 0x22EC, symBinAddr: 0x100003FC4, symSize: 0x8C }
  - { offsetInCU: 0xD9AE, offset: 0x10674, size: 0x8, addend: 0x0, symName: __ZNSt3__117__compressed_pairIPNS_12basic_stringIcNS_11char_traitsIcEENS_9allocatorIcEEEENS4_IS6_EEE6secondB7v160006Ev, symObjAddr: 0x23F8, symBinAddr: 0x1000040D0, symSize: 0x24 }
  - { offsetInCU: 0xD9D4, offset: 0x1069A, size: 0x8, addend: 0x0, symName: __ZNSt3__122__compressed_pair_elemINS_9allocatorINS_12basic_stringIcNS_11char_traitsIcEENS1_IcEEEEEELi1ELb1EE5__getB7v160006Ev, symObjAddr: 0x241C, symBinAddr: 0x1000040F4, symSize: 0x14 }
  - { offsetInCU: 0xD9FA, offset: 0x106C0, size: 0x8, addend: 0x0, symName: __ZNSt3__117__compressed_pairIPNS_12basic_stringIcNS_11char_traitsIcEENS_9allocatorIcEEEENS4_IS6_EEE5firstB7v160006Ev, symObjAddr: 0x2430, symBinAddr: 0x100004108, symSize: 0x24 }
  - { offsetInCU: 0xDA20, offset: 0x106E6, size: 0x8, addend: 0x0, symName: __ZNSt3__122__compressed_pair_elemIPNS_12basic_stringIcNS_11char_traitsIcEENS_9allocatorIcEEEELi0ELb0EE5__getB7v160006Ev, symObjAddr: 0x2454, symBinAddr: 0x10000412C, symSize: 0x14 }
  - { offsetInCU: 0xDA46, offset: 0x1070C, size: 0x8, addend: 0x0, symName: __ZNKSt3__16vectorINS_12basic_stringIcNS_11char_traitsIcEENS_9allocatorIcEEEENS4_IS6_EEE31__annotate_contiguous_containerB7v160006EPKvSA_SA_SA_, symObjAddr: 0x2468, symBinAddr: 0x100004140, symSize: 0x20 }
  - { offsetInCU: 0xDA9C, offset: 0x10762, size: 0x8, addend: 0x0, symName: __ZNKSt3__16vectorINS_12basic_stringIcNS_11char_traitsIcEENS_9allocatorIcEEEENS4_IS6_EEE4dataB7v160006Ev, symObjAddr: 0x2488, symBinAddr: 0x100004160, symSize: 0x28 }
  - { offsetInCU: 0xDAC2, offset: 0x10788, size: 0x8, addend: 0x0, symName: __ZNKSt3__16vectorINS_12basic_stringIcNS_11char_traitsIcEENS_9allocatorIcEEEENS4_IS6_EEE8capacityB7v160006Ev, symObjAddr: 0x24B0, symBinAddr: 0x100004188, symSize: 0x40 }
  - { offsetInCU: 0xDAE8, offset: 0x107AE, size: 0x8, addend: 0x0, symName: __ZNKSt3__16vectorINS_12basic_stringIcNS_11char_traitsIcEENS_9allocatorIcEEEENS4_IS6_EEE9__end_capB7v160006Ev, symObjAddr: 0x2504, symBinAddr: 0x1000041DC, symSize: 0x28 }
  - { offsetInCU: 0xDB0E, offset: 0x107D4, size: 0x8, addend: 0x0, symName: __ZNKSt3__117__compressed_pairIPNS_12basic_stringIcNS_11char_traitsIcEENS_9allocatorIcEEEENS4_IS6_EEE5firstB7v160006Ev, symObjAddr: 0x252C, symBinAddr: 0x100004204, symSize: 0x24 }
  - { offsetInCU: 0xDB34, offset: 0x107FA, size: 0x8, addend: 0x0, symName: __ZNKSt3__122__compressed_pair_elemIPNS_12basic_stringIcNS_11char_traitsIcEENS_9allocatorIcEEEELi0ELb0EE5__getB7v160006Ev, symObjAddr: 0x2550, symBinAddr: 0x100004228, symSize: 0x14 }
  - { offsetInCU: 0xDB75, offset: 0x1083B, size: 0x8, addend: 0x0, symName: __ZNSt3__16vectorINS_12basic_stringIcNS_11char_traitsIcEENS_9allocatorIcEEEENS4_IS6_EEE21_ConstructTransactionC1B7v160006ERS8_m, symObjAddr: 0x2564, symBinAddr: 0x10000423C, symSize: 0x3C }
  - { offsetInCU: 0xDBBD, offset: 0x10883, size: 0x8, addend: 0x0, symName: __ZNSt3__116allocator_traitsINS_9allocatorINS_12basic_stringIcNS_11char_traitsIcEENS1_IcEEEEEEE9constructB7v160006IS6_JRKS6_EvEEvRS7_PT_DpOT0_, symObjAddr: 0x25A0, symBinAddr: 0x100004278, symSize: 0x34 }
  - { offsetInCU: 0xDC14, offset: 0x108DA, size: 0x8, addend: 0x0, symName: __ZNSt3__16vectorINS_12basic_stringIcNS_11char_traitsIcEENS_9allocatorIcEEEENS4_IS6_EEE21_ConstructTransactionD1B7v160006Ev, symObjAddr: 0x25D4, symBinAddr: 0x1000042AC, symSize: 0x2C }
  - { offsetInCU: 0xDC3E, offset: 0x10904, size: 0x8, addend: 0x0, symName: __ZNSt3__16vectorINS_12basic_stringIcNS_11char_traitsIcEENS_9allocatorIcEEEENS4_IS6_EEE21_ConstructTransactionC2B7v160006ERS8_m, symObjAddr: 0x2600, symBinAddr: 0x1000042D8, symSize: 0x4C }
  - { offsetInCU: 0xDC86, offset: 0x1094C, size: 0x8, addend: 0x0, symName: __ZNSt3__19allocatorINS_12basic_stringIcNS_11char_traitsIcEENS0_IcEEEEE9constructB7v160006IS5_JRKS5_EEEvPT_DpOT0_, symObjAddr: 0x264C, symBinAddr: 0x100004324, symSize: 0x30 }
  - { offsetInCU: 0xDCDC, offset: 0x109A2, size: 0x8, addend: 0x0, symName: __ZNSt3__16vectorINS_12basic_stringIcNS_11char_traitsIcEENS_9allocatorIcEEEENS4_IS6_EEE21_ConstructTransactionD2B7v160006Ev, symObjAddr: 0x267C, symBinAddr: 0x100004354, symSize: 0x20 }
  - { offsetInCU: 0xDD06, offset: 0x109CC, size: 0x8, addend: 0x0, symName: __ZNSt3__128__exception_guard_exceptionsINS_6vectorINS_12basic_stringIcNS_11char_traitsIcEENS_9allocatorIcEEEENS5_IS7_EEE16__destroy_vectorEED2B7v160006Ev, symObjAddr: 0x269C, symBinAddr: 0x100004374, symSize: 0x48 }
  - { offsetInCU: 0xDD30, offset: 0x109F6, size: 0x8, addend: 0x0, symName: __ZNSt3__16vectorINS_12basic_stringIcNS_11char_traitsIcEENS_9allocatorIcEEEENS4_IS6_EEE16__destroy_vectorclB7v160006Ev, symObjAddr: 0x26E4, symBinAddr: 0x1000043BC, symSize: 0x9C }
  - { offsetInCU: 0xDD56, offset: 0x10A1C, size: 0x8, addend: 0x0, symName: __ZNKSt3__16vectorINS_12basic_stringIcNS_11char_traitsIcEENS_9allocatorIcEEEENS4_IS6_EEE17__annotate_deleteB7v160006Ev, symObjAddr: 0x2780, symBinAddr: 0x100004458, symSize: 0xD4 }
  - { offsetInCU: 0xDD7C, offset: 0x10A42, size: 0x8, addend: 0x0, symName: __ZNSt3__16vectorINS_12basic_stringIcNS_11char_traitsIcEENS_9allocatorIcEEEENS4_IS6_EEE7__clearB7v160006Ev, symObjAddr: 0x2864, symBinAddr: 0x10000453C, symSize: 0x28 }
  - { offsetInCU: 0xDDA2, offset: 0x10A68, size: 0x8, addend: 0x0, symName: __ZNSt3__116allocator_traitsINS_9allocatorINS_12basic_stringIcNS_11char_traitsIcEENS1_IcEEEEEEE10deallocateB7v160006ERS7_PS6_m, symObjAddr: 0x288C, symBinAddr: 0x100004564, symSize: 0x34 }
  - { offsetInCU: 0xDDE4, offset: 0x10AAA, size: 0x8, addend: 0x0, symName: __ZNKSt3__16vectorINS_12basic_stringIcNS_11char_traitsIcEENS_9allocatorIcEEEENS4_IS6_EEE4sizeB7v160006Ev, symObjAddr: 0x28C0, symBinAddr: 0x100004598, symSize: 0x28 }
  - { offsetInCU: 0xDE0A, offset: 0x10AD0, size: 0x8, addend: 0x0, symName: __ZNSt3__16vectorINS_12basic_stringIcNS_11char_traitsIcEENS_9allocatorIcEEEENS4_IS6_EEE22__base_destruct_at_endB7v160006EPS6_, symObjAddr: 0x28E8, symBinAddr: 0x1000045C0, symSize: 0xA0 }
  - { offsetInCU: 0xDE4E, offset: 0x10B14, size: 0x8, addend: 0x0, symName: __ZNSt3__116allocator_traitsINS_9allocatorINS_12basic_stringIcNS_11char_traitsIcEENS1_IcEEEEEEE7destroyB7v160006IS6_vEEvRS7_PT_, symObjAddr: 0x2988, symBinAddr: 0x100004660, symSize: 0x2C }
  - { offsetInCU: 0xDE8B, offset: 0x10B51, size: 0x8, addend: 0x0, symName: __ZNSt3__19allocatorINS_12basic_stringIcNS_11char_traitsIcEENS0_IcEEEEE7destroyB7v160006EPS5_, symObjAddr: 0x29B4, symBinAddr: 0x10000468C, symSize: 0x28 }
  - { offsetInCU: 0xDEBF, offset: 0x10B85, size: 0x8, addend: 0x0, symName: __ZNSt3__19allocatorINS_12basic_stringIcNS_11char_traitsIcEENS0_IcEEEEE10deallocateB7v160006EPS5_m, symObjAddr: 0x29DC, symBinAddr: 0x1000046B4, symSize: 0x74 }
  - { offsetInCU: 0xDF01, offset: 0x10BC7, size: 0x8, addend: 0x0, symName: __ZNSt3__16vectorINS_12basic_stringIcNS_11char_traitsIcEENS_9allocatorIcEEEENS4_IS6_EEED2B7v160006Ev, symObjAddr: 0x2A50, symBinAddr: 0x100004728, symSize: 0x3C }
  - { offsetInCU: 0xDF2B, offset: 0x10BF1, size: 0x8, addend: 0x0, symName: __ZNSt3__16vectorINS0_INS_12basic_stringIcNS_11char_traitsIcEENS_9allocatorIcEEEENS4_IS6_EEEENS4_IS8_EEEC2EmRKS8_, symObjAddr: 0x2A8C, symBinAddr: 0x100004764, symSize: 0xEC }
  - { offsetInCU: 0xDF8A, offset: 0x10C50, size: 0x8, addend: 0x0, symName: __ZNSt3__16vectorINS0_INS_12basic_stringIcNS_11char_traitsIcEENS_9allocatorIcEEEENS4_IS6_EEEENS4_IS8_EEE11__vallocateB7v160006Em, symObjAddr: 0x2BB8, symBinAddr: 0x100004890, symSize: 0xB4 }
  - { offsetInCU: 0xDFCE, offset: 0x10C94, size: 0x8, addend: 0x0, symName: __ZNSt3__16vectorINS0_INS_12basic_stringIcNS_11char_traitsIcEENS_9allocatorIcEEEENS4_IS6_EEEENS4_IS8_EEE18__construct_at_endEmRKS8_, symObjAddr: 0x2C6C, symBinAddr: 0x100004944, symSize: 0xD8 }
  - { offsetInCU: 0xE050, offset: 0x10D16, size: 0x8, addend: 0x0, symName: __ZNSt3__128__exception_guard_exceptionsINS_6vectorINS1_INS_12basic_stringIcNS_11char_traitsIcEENS_9allocatorIcEEEENS5_IS7_EEEENS5_IS9_EEE16__destroy_vectorEE10__completeB7v160006Ev, symObjAddr: 0x2D44, symBinAddr: 0x100004A1C, symSize: 0x1C }
  - { offsetInCU: 0xE076, offset: 0x10D3C, size: 0x8, addend: 0x0, symName: __ZNSt3__128__exception_guard_exceptionsINS_6vectorINS1_INS_12basic_stringIcNS_11char_traitsIcEENS_9allocatorIcEEEENS5_IS7_EEEENS5_IS9_EEE16__destroy_vectorEED1B7v160006Ev, symObjAddr: 0x2D60, symBinAddr: 0x100004A38, symSize: 0x2C }
  - { offsetInCU: 0xE0A0, offset: 0x10D66, size: 0x8, addend: 0x0, symName: __ZNSt3__128__exception_guard_exceptionsINS_6vectorINS1_INS_12basic_stringIcNS_11char_traitsIcEENS_9allocatorIcEEEENS5_IS7_EEEENS5_IS9_EEE16__destroy_vectorEEC1B7v160006ESC_, symObjAddr: 0x2D8C, symBinAddr: 0x100004A64, symSize: 0x34 }
  - { offsetInCU: 0xE0D8, offset: 0x10D9E, size: 0x8, addend: 0x0, symName: __ZNSt3__128__exception_guard_exceptionsINS_6vectorINS1_INS_12basic_stringIcNS_11char_traitsIcEENS_9allocatorIcEEEENS5_IS7_EEEENS5_IS9_EEE16__destroy_vectorEEC2B7v160006ESC_, symObjAddr: 0x2DC0, symBinAddr: 0x100004A98, symSize: 0x24 }
  - { offsetInCU: 0xE110, offset: 0x10DD6, size: 0x8, addend: 0x0, symName: __ZNKSt3__16vectorINS0_INS_12basic_stringIcNS_11char_traitsIcEENS_9allocatorIcEEEENS4_IS6_EEEENS4_IS8_EEE8max_sizeEv, symObjAddr: 0x2DE4, symBinAddr: 0x100004ABC, symSize: 0x74 }
  - { offsetInCU: 0xE138, offset: 0x10DFE, size: 0x8, addend: 0x0, symName: __ZNKSt3__16vectorINS0_INS_12basic_stringIcNS_11char_traitsIcEENS_9allocatorIcEEEENS4_IS6_EEEENS4_IS8_EEE20__throw_length_errorB7v160006Ev, symObjAddr: 0x2E58, symBinAddr: 0x100004B30, symSize: 0x1C }
  - { offsetInCU: 0xE15E, offset: 0x10E24, size: 0x8, addend: 0x0, symName: __ZNSt3__16vectorINS0_INS_12basic_stringIcNS_11char_traitsIcEENS_9allocatorIcEEEENS4_IS6_EEEENS4_IS8_EEE9__end_capB7v160006Ev, symObjAddr: 0x2EB4, symBinAddr: 0x100004B8C, symSize: 0x28 }
  - { offsetInCU: 0xE184, offset: 0x10E4A, size: 0x8, addend: 0x0, symName: __ZNKSt3__16vectorINS0_INS_12basic_stringIcNS_11char_traitsIcEENS_9allocatorIcEEEENS4_IS6_EEEENS4_IS8_EEE14__annotate_newB7v160006Em, symObjAddr: 0x2EDC, symBinAddr: 0x100004BB4, symSize: 0xC8 }
  - { offsetInCU: 0xE1C4, offset: 0x10E8A, size: 0x8, addend: 0x0, symName: __ZNSt3__116allocator_traitsINS_9allocatorINS_6vectorINS_12basic_stringIcNS_11char_traitsIcEENS1_IcEEEENS1_IS7_EEEEEEE8max_sizeB7v160006ISA_vEEmRKSA_, symObjAddr: 0x2FA4, symBinAddr: 0x100004C7C, symSize: 0x24 }
  - { offsetInCU: 0xE1F2, offset: 0x10EB8, size: 0x8, addend: 0x0, symName: __ZNKSt3__16vectorINS0_INS_12basic_stringIcNS_11char_traitsIcEENS_9allocatorIcEEEENS4_IS6_EEEENS4_IS8_EEE7__allocB7v160006Ev, symObjAddr: 0x2FC8, symBinAddr: 0x100004CA0, symSize: 0x28 }
  - { offsetInCU: 0xE218, offset: 0x10EDE, size: 0x8, addend: 0x0, symName: __ZNKSt3__19allocatorINS_6vectorINS_12basic_stringIcNS_11char_traitsIcEENS0_IcEEEENS0_IS6_EEEEE8max_sizeB7v160006Ev, symObjAddr: 0x2FF0, symBinAddr: 0x100004CC8, symSize: 0x18 }
  - { offsetInCU: 0xE23E, offset: 0x10F04, size: 0x8, addend: 0x0, symName: __ZNKSt3__117__compressed_pairIPNS_6vectorINS_12basic_stringIcNS_11char_traitsIcEENS_9allocatorIcEEEENS5_IS7_EEEENS5_IS9_EEE6secondB7v160006Ev, symObjAddr: 0x3008, symBinAddr: 0x100004CE0, symSize: 0x24 }
  - { offsetInCU: 0xE264, offset: 0x10F2A, size: 0x8, addend: 0x0, symName: __ZNKSt3__122__compressed_pair_elemINS_9allocatorINS_6vectorINS_12basic_stringIcNS_11char_traitsIcEENS1_IcEEEENS1_IS7_EEEEEELi1ELb1EE5__getB7v160006Ev, symObjAddr: 0x302C, symBinAddr: 0x100004D04, symSize: 0x14 }
  - { offsetInCU: 0xE28A, offset: 0x10F50, size: 0x8, addend: 0x0, symName: __ZNSt3__19allocatorINS_6vectorINS_12basic_stringIcNS_11char_traitsIcEENS0_IcEEEENS0_IS6_EEEEE8allocateB7v160006Em, symObjAddr: 0x3040, symBinAddr: 0x100004D18, symSize: 0x8C }
  - { offsetInCU: 0xE2BE, offset: 0x10F84, size: 0x8, addend: 0x0, symName: __ZNSt3__117__compressed_pairIPNS_6vectorINS_12basic_stringIcNS_11char_traitsIcEENS_9allocatorIcEEEENS5_IS7_EEEENS5_IS9_EEE5firstB7v160006Ev, symObjAddr: 0x30CC, symBinAddr: 0x100004DA4, symSize: 0x24 }
  - { offsetInCU: 0xE2E4, offset: 0x10FAA, size: 0x8, addend: 0x0, symName: __ZNSt3__122__compressed_pair_elemIPNS_6vectorINS_12basic_stringIcNS_11char_traitsIcEENS_9allocatorIcEEEENS5_IS7_EEEELi0ELb0EE5__getB7v160006Ev, symObjAddr: 0x30F0, symBinAddr: 0x100004DC8, symSize: 0x14 }
  - { offsetInCU: 0xE325, offset: 0x10FEB, size: 0x8, addend: 0x0, symName: __ZNSt3__16vectorINS0_INS_12basic_stringIcNS_11char_traitsIcEENS_9allocatorIcEEEENS4_IS6_EEEENS4_IS8_EEE21_ConstructTransactionC1B7v160006ERSA_m, symObjAddr: 0x3104, symBinAddr: 0x100004DDC, symSize: 0x3C }
  - { offsetInCU: 0xE36D, offset: 0x11033, size: 0x8, addend: 0x0, symName: __ZNSt3__116allocator_traitsINS_9allocatorINS_6vectorINS_12basic_stringIcNS_11char_traitsIcEENS1_IcEEEENS1_IS7_EEEEEEE9constructB7v160006IS9_JRKS9_EvEEvRSA_PT_DpOT0_, symObjAddr: 0x3140, symBinAddr: 0x100004E18, symSize: 0x34 }
  - { offsetInCU: 0xE3C4, offset: 0x1108A, size: 0x8, addend: 0x0, symName: __ZNSt3__16vectorINS0_INS_12basic_stringIcNS_11char_traitsIcEENS_9allocatorIcEEEENS4_IS6_EEEENS4_IS8_EEE21_ConstructTransactionD1B7v160006Ev, symObjAddr: 0x3174, symBinAddr: 0x100004E4C, symSize: 0x2C }
  - { offsetInCU: 0xE3EE, offset: 0x110B4, size: 0x8, addend: 0x0, symName: __ZNSt3__16vectorINS0_INS_12basic_stringIcNS_11char_traitsIcEENS_9allocatorIcEEEENS4_IS6_EEEENS4_IS8_EEE21_ConstructTransactionC2B7v160006ERSA_m, symObjAddr: 0x31A0, symBinAddr: 0x100004E78, symSize: 0x4C }
  - { offsetInCU: 0xE436, offset: 0x110FC, size: 0x8, addend: 0x0, symName: __ZNSt3__19allocatorINS_6vectorINS_12basic_stringIcNS_11char_traitsIcEENS0_IcEEEENS0_IS6_EEEEE9constructB7v160006IS8_JRKS8_EEEvPT_DpOT0_, symObjAddr: 0x31EC, symBinAddr: 0x100004EC4, symSize: 0x30 }
  - { offsetInCU: 0xE48C, offset: 0x11152, size: 0x8, addend: 0x0, symName: __ZNSt3__16vectorINS_12basic_stringIcNS_11char_traitsIcEENS_9allocatorIcEEEENS4_IS6_EEEC1ERKS8_, symObjAddr: 0x321C, symBinAddr: 0x100004EF4, symSize: 0x34 }
  - { offsetInCU: 0xE4C7, offset: 0x1118D, size: 0x8, addend: 0x0, symName: __ZNSt3__16vectorINS_12basic_stringIcNS_11char_traitsIcEENS_9allocatorIcEEEENS4_IS6_EEEC2ERKS8_, symObjAddr: 0x3250, symBinAddr: 0x100004F28, symSize: 0x118 }
  - { offsetInCU: 0xE526, offset: 0x111EC, size: 0x8, addend: 0x0, symName: __ZNSt3__116allocator_traitsINS_9allocatorINS_12basic_stringIcNS_11char_traitsIcEENS1_IcEEEEEEE37select_on_container_copy_constructionB7v160006IS7_vvEES7_RKS7_, symObjAddr: 0x3368, symBinAddr: 0x100005040, symSize: 0x10 }
  - { offsetInCU: 0xE55B, offset: 0x11221, size: 0x8, addend: 0x0, symName: __ZNSt3__117__compressed_pairIPNS_12basic_stringIcNS_11char_traitsIcEENS_9allocatorIcEEEENS4_IS6_EEEC1B7v160006IDnS8_EEOT_OT0_, symObjAddr: 0x3378, symBinAddr: 0x100005050, symSize: 0x3C }
  - { offsetInCU: 0xE5B3, offset: 0x11279, size: 0x8, addend: 0x0, symName: __ZNSt3__16vectorINS_12basic_stringIcNS_11char_traitsIcEENS_9allocatorIcEEEENS4_IS6_EEE18__construct_at_endIPS6_Li0EEEvT_SB_m, symObjAddr: 0x33B4, symBinAddr: 0x10000508C, symSize: 0x94 }
  - { offsetInCU: 0xE626, offset: 0x112EC, size: 0x8, addend: 0x0, symName: __ZNSt3__117__compressed_pairIPNS_12basic_stringIcNS_11char_traitsIcEENS_9allocatorIcEEEENS4_IS6_EEEC2B7v160006IDnS8_EEOT_OT0_, symObjAddr: 0x3448, symBinAddr: 0x100005120, symSize: 0x44 }
  - { offsetInCU: 0xE67E, offset: 0x11344, size: 0x8, addend: 0x0, symName: __ZNSt3__122__compressed_pair_elemINS_9allocatorINS_12basic_stringIcNS_11char_traitsIcEENS1_IcEEEEEELi1ELb1EEC2B7v160006IS7_vEEOT_, symObjAddr: 0x348C, symBinAddr: 0x100005164, symSize: 0x18 }
  - { offsetInCU: 0xE6C0, offset: 0x11386, size: 0x8, addend: 0x0, symName: __ZNSt3__129_AllocatorDestroyRangeReverseINS_9allocatorINS_12basic_stringIcNS_11char_traitsIcEENS1_IcEEEEEEPS6_EC1B7v160006ERS7_RS8_SB_, symObjAddr: 0x35EC, symBinAddr: 0x1000052C4, symSize: 0x44 }
  - { offsetInCU: 0xE717, offset: 0x113DD, size: 0x8, addend: 0x0, symName: __ZNSt3__116allocator_traitsINS_9allocatorINS_12basic_stringIcNS_11char_traitsIcEENS1_IcEEEEEEE9constructB7v160006IS6_JRS6_EvEEvRS7_PT_DpOT0_, symObjAddr: 0x3630, symBinAddr: 0x100005308, symSize: 0x34 }
  - { offsetInCU: 0xE76E, offset: 0x11434, size: 0x8, addend: 0x0, symName: __ZNSt3__128__exception_guard_exceptionsINS_29_AllocatorDestroyRangeReverseINS_9allocatorINS_12basic_stringIcNS_11char_traitsIcEENS2_IcEEEEEEPS7_EEE10__completeB7v160006Ev, symObjAddr: 0x3664, symBinAddr: 0x10000533C, symSize: 0x1C }
  - { offsetInCU: 0xE794, offset: 0x1145A, size: 0x8, addend: 0x0, symName: __ZNSt3__128__exception_guard_exceptionsINS_29_AllocatorDestroyRangeReverseINS_9allocatorINS_12basic_stringIcNS_11char_traitsIcEENS2_IcEEEEEEPS7_EEED1B7v160006Ev, symObjAddr: 0x3680, symBinAddr: 0x100005358, symSize: 0x2C }
  - { offsetInCU: 0xE7BE, offset: 0x11484, size: 0x8, addend: 0x0, symName: __ZNSt3__128__exception_guard_exceptionsINS_29_AllocatorDestroyRangeReverseINS_9allocatorINS_12basic_stringIcNS_11char_traitsIcEENS2_IcEEEEEEPS7_EEEC1B7v160006ESA_, symObjAddr: 0x36AC, symBinAddr: 0x100005384, symSize: 0x34 }
  - { offsetInCU: 0xE7F7, offset: 0x114BD, size: 0x8, addend: 0x0, symName: __ZNSt3__128__exception_guard_exceptionsINS_29_AllocatorDestroyRangeReverseINS_9allocatorINS_12basic_stringIcNS_11char_traitsIcEENS2_IcEEEEEEPS7_EEEC2B7v160006ESA_, symObjAddr: 0x36E0, symBinAddr: 0x1000053B8, symSize: 0x30 }
  - { offsetInCU: 0xE830, offset: 0x114F6, size: 0x8, addend: 0x0, symName: __ZNSt3__129_AllocatorDestroyRangeReverseINS_9allocatorINS_12basic_stringIcNS_11char_traitsIcEENS1_IcEEEEEEPS6_EC2B7v160006ERS7_RS8_SB_, symObjAddr: 0x3710, symBinAddr: 0x1000053E8, symSize: 0x38 }
  - { offsetInCU: 0xE887, offset: 0x1154D, size: 0x8, addend: 0x0, symName: __ZNSt3__19allocatorINS_12basic_stringIcNS_11char_traitsIcEENS0_IcEEEEE9constructB7v160006IS5_JRS5_EEEvPT_DpOT0_, symObjAddr: 0x3748, symBinAddr: 0x100005420, symSize: 0x30 }
  - { offsetInCU: 0xE8DD, offset: 0x115A3, size: 0x8, addend: 0x0, symName: __ZNSt3__128__exception_guard_exceptionsINS_29_AllocatorDestroyRangeReverseINS_9allocatorINS_12basic_stringIcNS_11char_traitsIcEENS2_IcEEEEEEPS7_EEED2B7v160006Ev, symObjAddr: 0x3778, symBinAddr: 0x100005450, symSize: 0x48 }
  - { offsetInCU: 0xE907, offset: 0x115CD, size: 0x8, addend: 0x0, symName: __ZNKSt3__129_AllocatorDestroyRangeReverseINS_9allocatorINS_12basic_stringIcNS_11char_traitsIcEENS1_IcEEEEEEPS6_EclB7v160006Ev, symObjAddr: 0x37C0, symBinAddr: 0x100005498, symSize: 0x68 }
  - { offsetInCU: 0xE92D, offset: 0x115F3, size: 0x8, addend: 0x0, symName: __ZNSt3__116reverse_iteratorIPNS_12basic_stringIcNS_11char_traitsIcEENS_9allocatorIcEEEEEC1B7v160006ES7_, symObjAddr: 0x3898, symBinAddr: 0x100005570, symSize: 0x34 }
  - { offsetInCU: 0xE965, offset: 0x1162B, size: 0x8, addend: 0x0, symName: __ZNSt3__116reverse_iteratorIPNS_12basic_stringIcNS_11char_traitsIcEENS_9allocatorIcEEEEEppB7v160006Ev, symObjAddr: 0x3938, symBinAddr: 0x100005610, symSize: 0x20 }
  - { offsetInCU: 0xE98B, offset: 0x11651, size: 0x8, addend: 0x0, symName: __ZNKSt3__116reverse_iteratorIPNS_12basic_stringIcNS_11char_traitsIcEENS_9allocatorIcEEEEE4baseB7v160006Ev, symObjAddr: 0x3958, symBinAddr: 0x100005630, symSize: 0x18 }
  - { offsetInCU: 0xE9B7, offset: 0x1167D, size: 0x8, addend: 0x0, symName: __ZNSt3__119__to_address_helperINS_16reverse_iteratorIPNS_12basic_stringIcNS_11char_traitsIcEENS_9allocatorIcEEEEEEvE6__callB7v160006ERKS9_, symObjAddr: 0x3970, symBinAddr: 0x100005648, symSize: 0x4C }
  - { offsetInCU: 0xE9DA, offset: 0x116A0, size: 0x8, addend: 0x0, symName: __ZNKSt3__116reverse_iteratorIPNS_12basic_stringIcNS_11char_traitsIcEENS_9allocatorIcEEEEEptB7v160006Ev, symObjAddr: 0x39BC, symBinAddr: 0x100005694, symSize: 0x24 }
  - { offsetInCU: 0xEA00, offset: 0x116C6, size: 0x8, addend: 0x0, symName: __ZNKSt3__116reverse_iteratorIPNS_12basic_stringIcNS_11char_traitsIcEENS_9allocatorIcEEEEEdeB7v160006Ev, symObjAddr: 0x39E0, symBinAddr: 0x1000056B8, symSize: 0x28 }
  - { offsetInCU: 0xEA34, offset: 0x116FA, size: 0x8, addend: 0x0, symName: __ZNSt3__116reverse_iteratorIPNS_12basic_stringIcNS_11char_traitsIcEENS_9allocatorIcEEEEEC2B7v160006ES7_, symObjAddr: 0x3A08, symBinAddr: 0x1000056E0, symSize: 0x28 }
  - { offsetInCU: 0xEA6C, offset: 0x11732, size: 0x8, addend: 0x0, symName: __ZNSt3__16vectorINS0_INS_12basic_stringIcNS_11char_traitsIcEENS_9allocatorIcEEEENS4_IS6_EEEENS4_IS8_EEE21_ConstructTransactionD2B7v160006Ev, symObjAddr: 0x3A30, symBinAddr: 0x100005708, symSize: 0x20 }
  - { offsetInCU: 0xEA96, offset: 0x1175C, size: 0x8, addend: 0x0, symName: __ZNSt3__128__exception_guard_exceptionsINS_6vectorINS1_INS_12basic_stringIcNS_11char_traitsIcEENS_9allocatorIcEEEENS5_IS7_EEEENS5_IS9_EEE16__destroy_vectorEED2B7v160006Ev, symObjAddr: 0x3A50, symBinAddr: 0x100005728, symSize: 0x48 }
  - { offsetInCU: 0xEAC0, offset: 0x11786, size: 0x8, addend: 0x0, symName: __ZNSt3__16vectorINS0_INS_12basic_stringIcNS_11char_traitsIcEENS_9allocatorIcEEEENS4_IS6_EEEENS4_IS8_EEE13__move_assignERSA_NS_17integral_constantIbLb1EEE, symObjAddr: 0x3A98, symBinAddr: 0x100005770, symSize: 0xA4 }
  - { offsetInCU: 0xEB03, offset: 0x117C9, size: 0x8, addend: 0x0, symName: __ZNSt3__16vectorINS0_INS_12basic_stringIcNS_11char_traitsIcEENS_9allocatorIcEEEENS4_IS6_EEEENS4_IS8_EEE13__vdeallocateEv, symObjAddr: 0x3B3C, symBinAddr: 0x100005814, symSize: 0x8C }
  - { offsetInCU: 0xEB2B, offset: 0x117F1, size: 0x8, addend: 0x0, symName: __ZNSt3__16vectorINS0_INS_12basic_stringIcNS_11char_traitsIcEENS_9allocatorIcEEEENS4_IS6_EEEENS4_IS8_EEE19__move_assign_allocB7v160006ERSA_, symObjAddr: 0x3BC8, symBinAddr: 0x1000058A0, symSize: 0x2C }
  - { offsetInCU: 0xEB60, offset: 0x11826, size: 0x8, addend: 0x0, symName: __ZNSt3__16vectorINS0_INS_12basic_stringIcNS_11char_traitsIcEENS_9allocatorIcEEEENS4_IS6_EEEENS4_IS8_EEE5clearB7v160006Ev, symObjAddr: 0x3C08, symBinAddr: 0x1000058E0, symSize: 0x68 }
  - { offsetInCU: 0xEB95, offset: 0x1185B, size: 0x8, addend: 0x0, symName: __ZNKSt3__16vectorINS0_INS_12basic_stringIcNS_11char_traitsIcEENS_9allocatorIcEEEENS4_IS6_EEEENS4_IS8_EEE17__annotate_shrinkB7v160006Em, symObjAddr: 0x3C70, symBinAddr: 0x100005948, symSize: 0xD0 }
  - { offsetInCU: 0xEBCA, offset: 0x11890, size: 0x8, addend: 0x0, symName: __ZNSt3__16vectorINS0_INS_12basic_stringIcNS_11char_traitsIcEENS_9allocatorIcEEEENS4_IS6_EEEENS4_IS8_EEE19__move_assign_allocB7v160006ERSA_NS_17integral_constantIbLb1EEE, symObjAddr: 0x3D50, symBinAddr: 0x100005A28, symSize: 0x38 }
  - { offsetInCU: 0xEC2C, offset: 0x118F2, size: 0x8, addend: 0x0, symName: __ZNKSt3__113basic_ostreamIcNS_11char_traitsIcEEE6sentrycvbB7v160006Ev, symObjAddr: 0x3F7C, symBinAddr: 0x100005C54, symSize: 0x1C }
  - { offsetInCU: 0xEC52, offset: 0x11918, size: 0x8, addend: 0x0, symName: __ZNSt3__119ostreambuf_iteratorIcNS_11char_traitsIcEEEC1B7v160006ERNS_13basic_ostreamIcS2_EE, symObjAddr: 0x41E0, symBinAddr: 0x100005EB8, symSize: 0x34 }
  - { offsetInCU: 0xEC8A, offset: 0x11950, size: 0x8, addend: 0x0, symName: __ZNKSt3__18ios_base5flagsB7v160006Ev, symObjAddr: 0x4214, symBinAddr: 0x100005EEC, symSize: 0x18 }
  - { offsetInCU: 0xECB2, offset: 0x11978, size: 0x8, addend: 0x0, symName: __ZNKSt3__19basic_iosIcNS_11char_traitsIcEEE4fillB7v160006Ev, symObjAddr: 0x422C, symBinAddr: 0x100005F04, symSize: 0x64 }
  - { offsetInCU: 0xECDA, offset: 0x119A0, size: 0x8, addend: 0x0, symName: __ZNKSt3__119ostreambuf_iteratorIcNS_11char_traitsIcEEE6failedB7v160006Ev, symObjAddr: 0x4290, symBinAddr: 0x100005F68, symSize: 0x24 }
  - { offsetInCU: 0xED00, offset: 0x119C6, size: 0x8, addend: 0x0, symName: __ZNSt3__19basic_iosIcNS_11char_traitsIcEEE8setstateB7v160006Ej, symObjAddr: 0x42B4, symBinAddr: 0x100005F8C, symSize: 0x2C }
  - { offsetInCU: 0xED35, offset: 0x119FB, size: 0x8, addend: 0x0, symName: __ZNKSt3__18ios_base5widthB7v160006Ev, symObjAddr: 0x42E0, symBinAddr: 0x100005FB8, symSize: 0x18 }
  - { offsetInCU: 0xED5D, offset: 0x11A23, size: 0x8, addend: 0x0, symName: __ZNSt3__115basic_streambufIcNS_11char_traitsIcEEE5sputnB7v160006EPKcl, symObjAddr: 0x42F8, symBinAddr: 0x100005FD0, symSize: 0x3C }
  - { offsetInCU: 0xED9F, offset: 0x11A65, size: 0x8, addend: 0x0, symName: __ZNSt3__112basic_stringIcNS_11char_traitsIcEENS_9allocatorIcEEEC1B7v160006Emc, symObjAddr: 0x4334, symBinAddr: 0x10000600C, symSize: 0x3C }
  - { offsetInCU: 0xEDE7, offset: 0x11AAD, size: 0x8, addend: 0x0, symName: __ZNKSt3__112basic_stringIcNS_11char_traitsIcEENS_9allocatorIcEEE4dataB7v160006Ev, symObjAddr: 0x4370, symBinAddr: 0x100006048, symSize: 0x28 }
  - { offsetInCU: 0xEE0D, offset: 0x11AD3, size: 0x8, addend: 0x0, symName: __ZNSt3__18ios_base5widthB7v160006El, symObjAddr: 0x4398, symBinAddr: 0x100006070, symSize: 0x2C }
  - { offsetInCU: 0xEE53, offset: 0x11B19, size: 0x8, addend: 0x0, symName: __ZNSt3__112basic_stringIcNS_11char_traitsIcEENS_9allocatorIcEEEC2B7v160006Emc, symObjAddr: 0x43C4, symBinAddr: 0x10000609C, symSize: 0x54 }
  - { offsetInCU: 0xEE9B, offset: 0x11B61, size: 0x8, addend: 0x0, symName: __ZNKSt3__112basic_stringIcNS_11char_traitsIcEENS_9allocatorIcEEE13__get_pointerB7v160006Ev, symObjAddr: 0x442C, symBinAddr: 0x100006104, symSize: 0x54 }
  - { offsetInCU: 0xEEC1, offset: 0x11B87, size: 0x8, addend: 0x0, symName: __ZNKSt3__112basic_stringIcNS_11char_traitsIcEENS_9allocatorIcEEE9__is_longB7v160006Ev, symObjAddr: 0x4480, symBinAddr: 0x100006158, symSize: 0x74 }
  - { offsetInCU: 0xEEE7, offset: 0x11BAD, size: 0x8, addend: 0x0, symName: __ZNKSt3__112basic_stringIcNS_11char_traitsIcEENS_9allocatorIcEEE18__get_long_pointerB7v160006Ev, symObjAddr: 0x44F4, symBinAddr: 0x1000061CC, symSize: 0x28 }
  - { offsetInCU: 0xEF0D, offset: 0x11BD3, size: 0x8, addend: 0x0, symName: __ZNKSt3__112basic_stringIcNS_11char_traitsIcEENS_9allocatorIcEEE19__get_short_pointerB7v160006Ev, symObjAddr: 0x451C, symBinAddr: 0x1000061F4, symSize: 0x28 }
  - { offsetInCU: 0xEF33, offset: 0x11BF9, size: 0x8, addend: 0x0, symName: __ZNKSt3__117__compressed_pairINS_12basic_stringIcNS_11char_traitsIcEENS_9allocatorIcEEE5__repES5_E5firstB7v160006Ev, symObjAddr: 0x4544, symBinAddr: 0x10000621C, symSize: 0x24 }
  - { offsetInCU: 0xEF59, offset: 0x11C1F, size: 0x8, addend: 0x0, symName: __ZNKSt3__122__compressed_pair_elemINS_12basic_stringIcNS_11char_traitsIcEENS_9allocatorIcEEE5__repELi0ELb0EE5__getB7v160006Ev, symObjAddr: 0x4568, symBinAddr: 0x100006240, symSize: 0x14 }
  - { offsetInCU: 0xEF7F, offset: 0x11C45, size: 0x8, addend: 0x0, symName: __ZNSt3__114pointer_traitsIPKcE10pointer_toB7v160006ERS1_, symObjAddr: 0x457C, symBinAddr: 0x100006254, symSize: 0x14 }
  - { offsetInCU: 0xEFA2, offset: 0x11C68, size: 0x8, addend: 0x0, symName: __ZNSt3__119ostreambuf_iteratorIcNS_11char_traitsIcEEEC2B7v160006ERNS_13basic_ostreamIcS2_EE, symObjAddr: 0x4590, symBinAddr: 0x100006268, symSize: 0x68 }
  - { offsetInCU: 0xEFDA, offset: 0x11CA0, size: 0x8, addend: 0x0, symName: __ZNKSt3__19basic_iosIcNS_11char_traitsIcEEE5rdbufB7v160006Ev, symObjAddr: 0x45F8, symBinAddr: 0x1000062D0, symSize: 0x24 }
  - { offsetInCU: 0xF002, offset: 0x11CC8, size: 0x8, addend: 0x0, symName: __ZNKSt3__18ios_base5rdbufB7v160006Ev, symObjAddr: 0x461C, symBinAddr: 0x1000062F4, symSize: 0x18 }
  - { offsetInCU: 0xF028, offset: 0x11CEE, size: 0x8, addend: 0x0, symName: __ZNSt3__111char_traitsIcE11eq_int_typeEii, symObjAddr: 0x4634, symBinAddr: 0x10000630C, symSize: 0x28 }
  - { offsetInCU: 0xF059, offset: 0x11D1F, size: 0x8, addend: 0x0, symName: __ZNSt3__111char_traitsIcE3eofEv, symObjAddr: 0x465C, symBinAddr: 0x100006334, symSize: 0x8 }
  - { offsetInCU: 0xF06D, offset: 0x11D33, size: 0x8, addend: 0x0, symName: __ZNKSt3__19basic_iosIcNS_11char_traitsIcEEE5widenB7v160006Ec, symObjAddr: 0x4664, symBinAddr: 0x10000633C, symSize: 0x8C }
  - { offsetInCU: 0xF0DB, offset: 0x11DA1, size: 0x8, addend: 0x0, symName: __ZNKSt3__15ctypeIcE5widenB7v160006Ec, symObjAddr: 0x471C, symBinAddr: 0x1000063F4, symSize: 0x38 }
  - { offsetInCU: 0xF110, offset: 0x11DD6, size: 0x8, addend: 0x0, symName: __ZNSt3__18ios_base8setstateB7v160006Ej, symObjAddr: 0x4754, symBinAddr: 0x10000642C, symSize: 0x34 }
  - { offsetInCU: 0xF147, offset: 0x11E0D, size: 0x8, addend: 0x0, symName: __ZNSt3__16vectorINS0_INS_12basic_stringIcNS_11char_traitsIcEENS_9allocatorIcEEEENS4_IS6_EEEENS4_IS8_EEE11__make_iterB7v160006EPS8_, symObjAddr: 0x4788, symBinAddr: 0x100006460, symSize: 0x34 }
  - { offsetInCU: 0xF17C, offset: 0x11E42, size: 0x8, addend: 0x0, symName: __ZNSt3__111__wrap_iterIPNS_6vectorINS_12basic_stringIcNS_11char_traitsIcEENS_9allocatorIcEEEENS5_IS7_EEEEEC1B7v160006EPKvSA_, symObjAddr: 0x47BC, symBinAddr: 0x100006494, symSize: 0x3C }
  - { offsetInCU: 0xF1C2, offset: 0x11E88, size: 0x8, addend: 0x0, symName: __ZNSt3__111__wrap_iterIPNS_6vectorINS_12basic_stringIcNS_11char_traitsIcEENS_9allocatorIcEEEENS5_IS7_EEEEEC2B7v160006EPKvSA_, symObjAddr: 0x47F8, symBinAddr: 0x1000064D0, symSize: 0x24 }
  - { offsetInCU: 0xF208, offset: 0x11ECE, size: 0x8, addend: 0x0, symName: __ZNKSt3__111__wrap_iterIPNS_6vectorINS_12basic_stringIcNS_11char_traitsIcEENS_9allocatorIcEEEENS5_IS7_EEEEE4baseB7v160006Ev, symObjAddr: 0x4864, symBinAddr: 0x10000653C, symSize: 0x18 }
  - { offsetInCU: 0xF22E, offset: 0x11EF4, size: 0x8, addend: 0x0, symName: __ZNKSt3__16vectorINS_12basic_stringIcNS_11char_traitsIcEENS_9allocatorIcEEEENS4_IS6_EEE11__make_iterB7v160006EPKS6_, symObjAddr: 0x487C, symBinAddr: 0x100006554, symSize: 0x34 }
  - { offsetInCU: 0xF263, offset: 0x11F29, size: 0x8, addend: 0x0, symName: __ZNSt3__111__wrap_iterIPKNS_12basic_stringIcNS_11char_traitsIcEENS_9allocatorIcEEEEEC1B7v160006EPKvS8_, symObjAddr: 0x48B0, symBinAddr: 0x100006588, symSize: 0x3C }
  - { offsetInCU: 0xF2A9, offset: 0x11F6F, size: 0x8, addend: 0x0, symName: __ZNSt3__111__wrap_iterIPKNS_12basic_stringIcNS_11char_traitsIcEENS_9allocatorIcEEEEEC2B7v160006EPKvS8_, symObjAddr: 0x48EC, symBinAddr: 0x1000065C4, symSize: 0x24 }
  - { offsetInCU: 0xF2EF, offset: 0x11FB5, size: 0x8, addend: 0x0, symName: __ZNKSt3__111__wrap_iterIPKNS_12basic_stringIcNS_11char_traitsIcEENS_9allocatorIcEEEEE4baseB7v160006Ev, symObjAddr: 0x4958, symBinAddr: 0x100006630, symSize: 0x18 }
  - { offsetInCU: 0xF315, offset: 0x11FDB, size: 0x8, addend: 0x0, symName: __ZNKSt3__112basic_stringIcNS_11char_traitsIcEENS_9allocatorIcEEE4sizeB7v160006Ev, symObjAddr: 0x4A30, symBinAddr: 0x100006708, symSize: 0x54 }
  - { offsetInCU: 0xF33B, offset: 0x12001, size: 0x8, addend: 0x0, symName: __ZNKSt3__112basic_stringIcNS_11char_traitsIcEENS_9allocatorIcEEE15__get_long_sizeB7v160006Ev, symObjAddr: 0x4A84, symBinAddr: 0x10000675C, symSize: 0x28 }
  - { offsetInCU: 0xF361, offset: 0x12027, size: 0x8, addend: 0x0, symName: __ZNKSt3__112basic_stringIcNS_11char_traitsIcEENS_9allocatorIcEEE16__get_short_sizeB7v160006Ev, symObjAddr: 0x4AAC, symBinAddr: 0x100006784, symSize: 0x34 }
  - { offsetInCU: 0xF387, offset: 0x1204D, size: 0x8, addend: 0x0, symName: __ZNSt3__111char_traitsIcE4findEPKcmRS2_, symObjAddr: 0x4D18, symBinAddr: 0x1000069F0, symSize: 0x84 }
  - { offsetInCU: 0xF3C6, offset: 0x1208C, size: 0x8, addend: 0x0, symName: __ZNSt3__111char_traitsIcE7compareEPKcS3_m, symObjAddr: 0x4D9C, symBinAddr: 0x100006A74, symSize: 0x80 }
  - { offsetInCU: 0xF405, offset: 0x120CB, size: 0x8, addend: 0x0, symName: __ZNSt3__16vectorINS0_INS_12basic_stringIcNS_11char_traitsIcEENS_9allocatorIcEEEENS4_IS6_EEEENS4_IS8_EEEC2ERKSA_, symObjAddr: 0x4E84, symBinAddr: 0x100006B5C, symSize: 0x118 }
  - { offsetInCU: 0xF464, offset: 0x1212A, size: 0x8, addend: 0x0, symName: __ZNSt3__116allocator_traitsINS_9allocatorINS_6vectorINS_12basic_stringIcNS_11char_traitsIcEENS1_IcEEEENS1_IS7_EEEEEEE37select_on_container_copy_constructionB7v160006ISA_vvEESA_RKSA_, symObjAddr: 0x4F9C, symBinAddr: 0x100006C74, symSize: 0x10 }
  - { offsetInCU: 0xF499, offset: 0x1215F, size: 0x8, addend: 0x0, symName: __ZNSt3__117__compressed_pairIPNS_6vectorINS_12basic_stringIcNS_11char_traitsIcEENS_9allocatorIcEEEENS5_IS7_EEEENS5_IS9_EEEC1B7v160006IDnSB_EEOT_OT0_, symObjAddr: 0x4FAC, symBinAddr: 0x100006C84, symSize: 0x3C }
  - { offsetInCU: 0xF4F1, offset: 0x121B7, size: 0x8, addend: 0x0, symName: __ZNSt3__16vectorINS0_INS_12basic_stringIcNS_11char_traitsIcEENS_9allocatorIcEEEENS4_IS6_EEEENS4_IS8_EEE18__construct_at_endIPS8_Li0EEEvT_SD_m, symObjAddr: 0x4FE8, symBinAddr: 0x100006CC0, symSize: 0x94 }
  - { offsetInCU: 0xF564, offset: 0x1222A, size: 0x8, addend: 0x0, symName: __ZNSt3__117__compressed_pairIPNS_6vectorINS_12basic_stringIcNS_11char_traitsIcEENS_9allocatorIcEEEENS5_IS7_EEEENS5_IS9_EEEC2B7v160006IDnSB_EEOT_OT0_, symObjAddr: 0x507C, symBinAddr: 0x100006D54, symSize: 0x44 }
  - { offsetInCU: 0xF5BC, offset: 0x12282, size: 0x8, addend: 0x0, symName: __ZNSt3__122__compressed_pair_elemINS_9allocatorINS_6vectorINS_12basic_stringIcNS_11char_traitsIcEENS1_IcEEEENS1_IS7_EEEEEELi1ELb1EEC2B7v160006ISA_vEEOT_, symObjAddr: 0x50C0, symBinAddr: 0x100006D98, symSize: 0x18 }
  - { offsetInCU: 0xF5FE, offset: 0x122C4, size: 0x8, addend: 0x0, symName: __ZNSt3__129_AllocatorDestroyRangeReverseINS_9allocatorINS_6vectorINS_12basic_stringIcNS_11char_traitsIcEENS1_IcEEEENS1_IS7_EEEEEEPS9_EC1B7v160006ERSA_RSB_SE_, symObjAddr: 0x5220, symBinAddr: 0x100006EF8, symSize: 0x44 }
  - { offsetInCU: 0xF655, offset: 0x1231B, size: 0x8, addend: 0x0, symName: __ZNSt3__116allocator_traitsINS_9allocatorINS_6vectorINS_12basic_stringIcNS_11char_traitsIcEENS1_IcEEEENS1_IS7_EEEEEEE9constructB7v160006IS9_JRS9_EvEEvRSA_PT_DpOT0_, symObjAddr: 0x5264, symBinAddr: 0x100006F3C, symSize: 0x34 }
  - { offsetInCU: 0xF6AC, offset: 0x12372, size: 0x8, addend: 0x0, symName: __ZNSt3__128__exception_guard_exceptionsINS_29_AllocatorDestroyRangeReverseINS_9allocatorINS_6vectorINS_12basic_stringIcNS_11char_traitsIcEENS2_IcEEEENS2_IS8_EEEEEEPSA_EEE10__completeB7v160006Ev, symObjAddr: 0x5298, symBinAddr: 0x100006F70, symSize: 0x1C }
  - { offsetInCU: 0xF6D2, offset: 0x12398, size: 0x8, addend: 0x0, symName: __ZNSt3__128__exception_guard_exceptionsINS_29_AllocatorDestroyRangeReverseINS_9allocatorINS_6vectorINS_12basic_stringIcNS_11char_traitsIcEENS2_IcEEEENS2_IS8_EEEEEEPSA_EEED1B7v160006Ev, symObjAddr: 0x52B4, symBinAddr: 0x100006F8C, symSize: 0x2C }
  - { offsetInCU: 0xF6FC, offset: 0x123C2, size: 0x8, addend: 0x0, symName: __ZNSt3__128__exception_guard_exceptionsINS_29_AllocatorDestroyRangeReverseINS_9allocatorINS_6vectorINS_12basic_stringIcNS_11char_traitsIcEENS2_IcEEEENS2_IS8_EEEEEEPSA_EEEC1B7v160006ESD_, symObjAddr: 0x52E0, symBinAddr: 0x100006FB8, symSize: 0x34 }
  - { offsetInCU: 0xF735, offset: 0x123FB, size: 0x8, addend: 0x0, symName: __ZNSt3__128__exception_guard_exceptionsINS_29_AllocatorDestroyRangeReverseINS_9allocatorINS_6vectorINS_12basic_stringIcNS_11char_traitsIcEENS2_IcEEEENS2_IS8_EEEEEEPSA_EEEC2B7v160006ESD_, symObjAddr: 0x5314, symBinAddr: 0x100006FEC, symSize: 0x30 }
  - { offsetInCU: 0xF76E, offset: 0x12434, size: 0x8, addend: 0x0, symName: __ZNSt3__129_AllocatorDestroyRangeReverseINS_9allocatorINS_6vectorINS_12basic_stringIcNS_11char_traitsIcEENS1_IcEEEENS1_IS7_EEEEEEPS9_EC2B7v160006ERSA_RSB_SE_, symObjAddr: 0x5344, symBinAddr: 0x10000701C, symSize: 0x38 }
  - { offsetInCU: 0xF7C5, offset: 0x1248B, size: 0x8, addend: 0x0, symName: __ZNSt3__19allocatorINS_6vectorINS_12basic_stringIcNS_11char_traitsIcEENS0_IcEEEENS0_IS6_EEEEE9constructB7v160006IS8_JRS8_EEEvPT_DpOT0_, symObjAddr: 0x537C, symBinAddr: 0x100007054, symSize: 0x30 }
  - { offsetInCU: 0xF81B, offset: 0x124E1, size: 0x8, addend: 0x0, symName: __ZNSt3__128__exception_guard_exceptionsINS_29_AllocatorDestroyRangeReverseINS_9allocatorINS_6vectorINS_12basic_stringIcNS_11char_traitsIcEENS2_IcEEEENS2_IS8_EEEEEEPSA_EEED2B7v160006Ev, symObjAddr: 0x53AC, symBinAddr: 0x100007084, symSize: 0x48 }
  - { offsetInCU: 0xF845, offset: 0x1250B, size: 0x8, addend: 0x0, symName: __ZNKSt3__129_AllocatorDestroyRangeReverseINS_9allocatorINS_6vectorINS_12basic_stringIcNS_11char_traitsIcEENS1_IcEEEENS1_IS7_EEEEEEPS9_EclB7v160006Ev, symObjAddr: 0x53F4, symBinAddr: 0x1000070CC, symSize: 0x68 }
  - { offsetInCU: 0xF86B, offset: 0x12531, size: 0x8, addend: 0x0, symName: __ZNSt3__116reverse_iteratorIPNS_6vectorINS_12basic_stringIcNS_11char_traitsIcEENS_9allocatorIcEEEENS5_IS7_EEEEEC1B7v160006ESA_, symObjAddr: 0x54CC, symBinAddr: 0x1000071A4, symSize: 0x34 }
  - { offsetInCU: 0xF8A3, offset: 0x12569, size: 0x8, addend: 0x0, symName: __ZNSt3__116reverse_iteratorIPNS_6vectorINS_12basic_stringIcNS_11char_traitsIcEENS_9allocatorIcEEEENS5_IS7_EEEEEppB7v160006Ev, symObjAddr: 0x556C, symBinAddr: 0x100007244, symSize: 0x20 }
  - { offsetInCU: 0xF8C9, offset: 0x1258F, size: 0x8, addend: 0x0, symName: __ZNKSt3__116reverse_iteratorIPNS_6vectorINS_12basic_stringIcNS_11char_traitsIcEENS_9allocatorIcEEEENS5_IS7_EEEEE4baseB7v160006Ev, symObjAddr: 0x558C, symBinAddr: 0x100007264, symSize: 0x18 }
  - { offsetInCU: 0xF8F5, offset: 0x125BB, size: 0x8, addend: 0x0, symName: __ZNSt3__119__to_address_helperINS_16reverse_iteratorIPNS_6vectorINS_12basic_stringIcNS_11char_traitsIcEENS_9allocatorIcEEEENS6_IS8_EEEEEEvE6__callB7v160006ERKSC_, symObjAddr: 0x55A4, symBinAddr: 0x10000727C, symSize: 0x4C }
  - { offsetInCU: 0xF918, offset: 0x125DE, size: 0x8, addend: 0x0, symName: __ZNKSt3__116reverse_iteratorIPNS_6vectorINS_12basic_stringIcNS_11char_traitsIcEENS_9allocatorIcEEEENS5_IS7_EEEEEptB7v160006Ev, symObjAddr: 0x55F0, symBinAddr: 0x1000072C8, symSize: 0x24 }
  - { offsetInCU: 0xF93E, offset: 0x12604, size: 0x8, addend: 0x0, symName: __ZNKSt3__116reverse_iteratorIPNS_6vectorINS_12basic_stringIcNS_11char_traitsIcEENS_9allocatorIcEEEENS5_IS7_EEEEEdeB7v160006Ev, symObjAddr: 0x5614, symBinAddr: 0x1000072EC, symSize: 0x28 }
  - { offsetInCU: 0xF972, offset: 0x12638, size: 0x8, addend: 0x0, symName: __ZNSt3__116reverse_iteratorIPNS_6vectorINS_12basic_stringIcNS_11char_traitsIcEENS_9allocatorIcEEEENS5_IS7_EEEEEC2B7v160006ESA_, symObjAddr: 0x563C, symBinAddr: 0x100007314, symSize: 0x28 }
  - { offsetInCU: 0xF9AA, offset: 0x12670, size: 0x8, addend: 0x0, symName: __ZNSt3__14pairIiiEC1B7v160006ERKiS3_, symObjAddr: 0x5664, symBinAddr: 0x10000733C, symSize: 0x3C }
  - { offsetInCU: 0xF9F0, offset: 0x126B6, size: 0x8, addend: 0x0, symName: __ZNSt3__14pairIiiEC2B7v160006ERKiS3_, symObjAddr: 0x56A0, symBinAddr: 0x100007378, symSize: 0x34 }
  - { offsetInCU: 0xFA36, offset: 0x126FC, size: 0x8, addend: 0x0, symName: __ZNSt3__14pairINS_6vectorINS1_INS_12basic_stringIcNS_11char_traitsIcEENS_9allocatorIcEEEENS5_IS7_EEEENS5_IS9_EEEESB_EC1B7v160006ERKSB_SE_, symObjAddr: 0x56D4, symBinAddr: 0x1000073AC, symSize: 0x3C }
  - { offsetInCU: 0xFA7C, offset: 0x12742, size: 0x8, addend: 0x0, symName: __ZNSt3__14pairINS_6vectorINS1_INS_12basic_stringIcNS_11char_traitsIcEENS_9allocatorIcEEEENS5_IS7_EEEENS5_IS9_EEEESB_EC2B7v160006ERKSB_SE_, symObjAddr: 0x5710, symBinAddr: 0x1000073E8, symSize: 0x78 }
  - { offsetInCU: 0x5B93, offset: 0x18440, size: 0x8, addend: 0x0, symName: __ZNSt3__16copy_nB7v160006IPKcmPcEENS_9enable_ifIXsr33__is_cpp17_random_access_iteratorIT_EE5valueET1_E4typeES5_T0_S6_, symObjAddr: 0x65B8, symBinAddr: 0x100009F04, symSize: 0x44 }
  - { offsetInCU: 0x690D, offset: 0x191BA, size: 0x8, addend: 0x0, symName: __ZNSt3__1rsB7v160006IcNS_11char_traitsIcEEEERNS_13basic_istreamIT_T0_EES7_RS4_, symObjAddr: 0xC6C, symBinAddr: 0x100007E78, symSize: 0x190 }
  - { offsetInCU: 0x698F, offset: 0x1923C, size: 0x8, addend: 0x0, symName: __ZNSt3__1plB7v160006IcNS_11char_traitsIcEENS_9allocatorIcEEEENS_12basic_stringIT_T0_T1_EERKS9_PKS6_, symObjAddr: 0xF0C, symBinAddr: 0x100008034, symSize: 0x11C }
  - { offsetInCU: 0x6A30, offset: 0x192DD, size: 0x8, addend: 0x0, symName: __ZNSt3__1neB7v160006IPNS_4pairINS_12basic_stringIcNS_11char_traitsIcEENS_9allocatorIcEEEEiEEEEbRKNS_11__wrap_iterIT_EESE_, symObjAddr: 0x1574, symBinAddr: 0x10000869C, symSize: 0x34 }
  - { offsetInCU: 0x6A73, offset: 0x19320, size: 0x8, addend: 0x0, symName: __ZNSt3__119__debug_db_insert_cB7v160006INS_6vectorINS_4pairINS_12basic_stringIcNS_11char_traitsIcEENS_9allocatorIcEEEEiEENS6_IS9_EEEEEEvPT_, symObjAddr: 0x1C48, symBinAddr: 0x100008B44, symSize: 0x10 }
  - { offsetInCU: 0x6AA4, offset: 0x19351, size: 0x8, addend: 0x0, symName: __ZNSt3__118__debug_db_erase_cB7v160006INS_6vectorINS_4pairINS_12basic_stringIcNS_11char_traitsIcEENS_9allocatorIcEEEEiEENS6_IS9_EEEEEEvPT_, symObjAddr: 0x1F20, symBinAddr: 0x100008E00, symSize: 0x10 }
  - { offsetInCU: 0x6AD5, offset: 0x19382, size: 0x8, addend: 0x0, symName: __ZNSt3__112__to_addressB7v160006INS_4pairINS_12basic_stringIcNS_11char_traitsIcEENS_9allocatorIcEEEEiEEEEPT_SA_, symObjAddr: 0x203C, symBinAddr: 0x100008F1C, symSize: 0x14 }
  - { offsetInCU: 0x6B0A, offset: 0x193B7, size: 0x8, addend: 0x0, symName: __ZNSt3__115__debug_db_swapB7v160006INS_6vectorINS_4pairINS_12basic_stringIcNS_11char_traitsIcEENS_9allocatorIcEEEEiEENS6_IS9_EEEEEEvPT_SD_, symObjAddr: 0x24B0, symBinAddr: 0x100009308, symSize: 0x14 }
  - { offsetInCU: 0x6B49, offset: 0x193F6, size: 0x8, addend: 0x0, symName: __ZNSt3__125__debug_db_invalidate_allB7v160006INS_6vectorINS_4pairINS_12basic_stringIcNS_11char_traitsIcEENS_9allocatorIcEEEEiEENS6_IS9_EEEEEEvPT_, symObjAddr: 0x25E0, symBinAddr: 0x100009438, symSize: 0x10 }
  - { offsetInCU: 0x7104, offset: 0x199B1, size: 0x8, addend: 0x0, symName: __ZNSt3__112__to_addressB7v160006IcEEPT_S2_, symObjAddr: 0x5D3C, symBinAddr: 0x100009688, symSize: 0x14 }
  - { offsetInCU: 0x736E, offset: 0x19C1B, size: 0x8, addend: 0x0, symName: __ZNSt3__14copyB7v160006IPKcPcEET0_T_S5_S4_, symObjAddr: 0x65FC, symBinAddr: 0x100009F48, symSize: 0x40 }
  - { offsetInCU: 0x73C8, offset: 0x19C75, size: 0x8, addend: 0x0, symName: __ZNSt3__16__copyB7v160006INS_17_ClassicAlgPolicyEPKcS3_PcEENS_4pairIT0_T2_EES6_T1_S7_, symObjAddr: 0x663C, symBinAddr: 0x100009F88, symSize: 0x44 }
  - { offsetInCU: 0x7434, offset: 0x19CE1, size: 0x8, addend: 0x0, symName: __ZNSt3__123__dispatch_copy_or_moveB7v160006INS_17_ClassicAlgPolicyENS_11__copy_loopIS1_EENS_14__copy_trivialEPKcS6_PcEENS_4pairIT2_T4_EES9_T3_SA_, symObjAddr: 0x6680, symBinAddr: 0x100009FCC, symSize: 0x54 }
  - { offsetInCU: 0x74B2, offset: 0x19D5F, size: 0x8, addend: 0x0, symName: __ZNSt3__121__unwrap_and_dispatchB7v160006INS_10__overloadINS_11__copy_loopINS_17_ClassicAlgPolicyEEENS_14__copy_trivialEEEPKcS8_PcLi0EEENS_4pairIT0_T2_EESB_T1_SC_, symObjAddr: 0x66D4, symBinAddr: 0x10000A020, symSize: 0xB4 }
  - { offsetInCU: 0x7540, offset: 0x19DED, size: 0x8, addend: 0x0, symName: __ZNSt3__114__unwrap_rangeB7v160006IPKcS2_EENS_4pairIT0_S4_EET_S6_, symObjAddr: 0x6788, symBinAddr: 0x10000A0D4, symSize: 0x60 }
  - { offsetInCU: 0x767F, offset: 0x19F2C, size: 0x8, addend: 0x0, symName: __ZNSt3__113__unwrap_iterB7v160006IPcNS_18__unwrap_iter_implIS1_Lb1EEELi0EEEDTclsrT0_8__unwrapclsr3stdE7declvalIT_EEEES5_, symObjAddr: 0x6830, symBinAddr: 0x10000A17C, symSize: 0x24 }
  - { offsetInCU: 0x76C3, offset: 0x19F70, size: 0x8, addend: 0x0, symName: __ZNSt3__19make_pairB7v160006IPKcPcEENS_4pairINS_18__unwrap_ref_decayIT_E4typeENS5_IT0_E4typeEEEOS6_OS9_, symObjAddr: 0x6854, symBinAddr: 0x10000A1A0, symSize: 0x38 }
  - { offsetInCU: 0x7712, offset: 0x19FBF, size: 0x8, addend: 0x0, symName: __ZNSt3__114__rewrap_rangeB7v160006IPKcS2_EET_S3_T0_, symObjAddr: 0x688C, symBinAddr: 0x10000A1D8, symSize: 0x2C }
  - { offsetInCU: 0x775E, offset: 0x1A00B, size: 0x8, addend: 0x0, symName: __ZNSt3__113__rewrap_iterB7v160006IPcS1_NS_18__unwrap_iter_implIS1_Lb1EEEEET_S4_T0_, symObjAddr: 0x68B8, symBinAddr: 0x10000A204, symSize: 0x50 }
  - { offsetInCU: 0x77B3, offset: 0x1A060, size: 0x8, addend: 0x0, symName: __ZNSt3__19make_pairB7v160006IPKcS2_EENS_4pairINS_18__unwrap_ref_decayIT_E4typeENS4_IT0_E4typeEEEOS5_OS8_, symObjAddr: 0x6908, symBinAddr: 0x10000A254, symSize: 0x38 }
  - { offsetInCU: 0x7802, offset: 0x1A0AF, size: 0x8, addend: 0x0, symName: __ZNSt3__113__unwrap_iterB7v160006IPKcNS_18__unwrap_iter_implIS2_Lb1EEELi0EEEDTclsrT0_8__unwrapclsr3stdE7declvalIT_EEEES6_, symObjAddr: 0x6940, symBinAddr: 0x10000A28C, symSize: 0x24 }
  - { offsetInCU: 0x7946, offset: 0x1A1F3, size: 0x8, addend: 0x0, symName: __ZNSt3__119__copy_trivial_implB7v160006IKccEENS_4pairIPT_PT0_EES4_S4_S6_, symObjAddr: 0x69F8, symBinAddr: 0x10000A344, symSize: 0x7C }
  - { offsetInCU: 0x79AE, offset: 0x1A25B, size: 0x8, addend: 0x0, symName: __ZNSt3__19make_pairB7v160006IRPKcPcEENS_4pairINS_18__unwrap_ref_decayIT_E4typeENS6_IT0_E4typeEEEOS7_OSA_, symObjAddr: 0x6A74, symBinAddr: 0x10000A3C0, symSize: 0x38 }
  - { offsetInCU: 0x7A50, offset: 0x1A2FD, size: 0x8, addend: 0x0, symName: __ZNSt3__113__rewrap_iterB7v160006IPKcS2_NS_18__unwrap_iter_implIS2_Lb1EEEEET_S5_T0_, symObjAddr: 0x6B40, symBinAddr: 0x10000A48C, symSize: 0x50 }
  - { offsetInCU: 0x7AA5, offset: 0x1A352, size: 0x8, addend: 0x0, symName: __ZNSt3__16fill_nB7v160006IPcmcEET_S2_T0_RKT1_, symObjAddr: 0x6C20, symBinAddr: 0x10000A56C, symSize: 0x44 }
  - { offsetInCU: 0x7B08, offset: 0x1A3B5, size: 0x8, addend: 0x0, symName: __ZNSt3__18__fill_nB7v160006IPcmcEET_S2_T0_RKT1_, symObjAddr: 0x6C64, symBinAddr: 0x10000A5B0, symSize: 0x64 }
  - { offsetInCU: 0x7B6B, offset: 0x1A418, size: 0x8, addend: 0x0, symName: __ZNSt3__121__convert_to_integralB7v160006Em, symObjAddr: 0x6CC8, symBinAddr: 0x10000A614, symSize: 0x14 }
  - { offsetInCU: 0x7B97, offset: 0x1A444, size: 0x8, addend: 0x0, symName: __ZNSt3__1eqB7v160006IPNS_4pairINS_12basic_stringIcNS_11char_traitsIcEENS_9allocatorIcEEEEiEEEEbRKNS_11__wrap_iterIT_EESE_, symObjAddr: 0x6E54, symBinAddr: 0x10000A78C, symSize: 0x48 }
  - { offsetInCU: 0x9FBE, offset: 0x1C86B, size: 0x8, addend: 0x0, symName: __ZN5FleetC2Ev, symObjAddr: 0x0, symBinAddr: 0x100007460, symSize: 0x190 }
  - { offsetInCU: 0x9FFE, offset: 0x1C8AB, size: 0x8, addend: 0x0, symName: __ZNSt3__16vectorINS_4pairINS_12basic_stringIcNS_11char_traitsIcEENS_9allocatorIcEEEEiEENS5_IS8_EEEC1B7v160006Ev, symObjAddr: 0x190, symBinAddr: 0x1000075F0, symSize: 0x2C }
  - { offsetInCU: 0xA028, offset: 0x1C8D5, size: 0x8, addend: 0x0, symName: __ZNSt3__16vectorINS_4pairINS_12basic_stringIcNS_11char_traitsIcEENS_9allocatorIcEEEEiEENS5_IS8_EEEaSB7v160006EOSA_, symObjAddr: 0x1E8, symBinAddr: 0x10000761C, symSize: 0x34 }
  - { offsetInCU: 0xA05F, offset: 0x1C90C, size: 0x8, addend: 0x0, symName: __ZNSt3__16vectorINS_4pairINS_12basic_stringIcNS_11char_traitsIcEENS_9allocatorIcEEEEiEENS5_IS8_EEED1B7v160006Ev, symObjAddr: 0x21C, symBinAddr: 0x100007650, symSize: 0x2C }
  - { offsetInCU: 0xA0F6, offset: 0x1C9A3, size: 0x8, addend: 0x0, symName: __ZN5FleetC1Ev, symObjAddr: 0x2B0, symBinAddr: 0x10000767C, symSize: 0x2C }
  - { offsetInCU: 0xA122, offset: 0x1C9CF, size: 0x8, addend: 0x0, symName: __ZN5Fleet11validChoiceENSt3__16vectorINS1_INS0_12basic_stringIcNS0_11char_traitsIcEENS0_9allocatorIcEEEENS5_IS7_EEEENS5_IS9_EEEEii, symObjAddr: 0x2DC, symBinAddr: 0x1000076A8, symSize: 0x88 }
  - { offsetInCU: 0xA175, offset: 0x1CA22, size: 0x8, addend: 0x0, symName: __ZN5Fleet11updateBoardENSt3__16vectorINS1_INS0_12basic_stringIcNS0_11char_traitsIcEENS0_9allocatorIcEEEENS5_IS7_EEEENS5_IS9_EEEE, symObjAddr: 0x47C, symBinAddr: 0x100007730, symSize: 0x554 }
  - { offsetInCU: 0xA214, offset: 0x1CAC1, size: 0x8, addend: 0x0, symName: __ZNKSt3__16vectorINS_4pairINS_12basic_stringIcNS_11char_traitsIcEENS_9allocatorIcEEEEiEENS5_IS8_EEE4sizeB7v160006Ev, symObjAddr: 0x9D0, symBinAddr: 0x100007C84, symSize: 0x28 }
  - { offsetInCU: 0xA23A, offset: 0x1CAE7, size: 0x8, addend: 0x0, symName: __ZN5Fleet10printBoardENSt3__16vectorINS1_INS0_12basic_stringIcNS0_11char_traitsIcEENS0_9allocatorIcEEEENS5_IS7_EEEENS5_IS9_EEEE, symObjAddr: 0x9F8, symBinAddr: 0x100007CAC, symSize: 0x1CC }
  - { offsetInCU: 0xA304, offset: 0x1CBB1, size: 0x8, addend: 0x0, symName: __ZNSt3__19basic_iosIcNS_11char_traitsIcEEE5clearB7v160006Ej, symObjAddr: 0xE80, symBinAddr: 0x100008008, symSize: 0x2C }
  - { offsetInCU: 0xA339, offset: 0x1CBE6, size: 0x8, addend: 0x0, symName: __ZNSt3__16vectorINS_4pairINS_12basic_stringIcNS_11char_traitsIcEENS_9allocatorIcEEEEiEENS5_IS8_EEEixB7v160006Em, symObjAddr: 0x1028, symBinAddr: 0x100008150, symSize: 0x24 }
  - { offsetInCU: 0xA370, offset: 0x1CC1D, size: 0x8, addend: 0x0, symName: __ZN5Fleet12tryPlaceShipERNSt3__16vectorINS1_INS0_12basic_stringIcNS0_11char_traitsIcEENS0_9allocatorIcEEEENS5_IS7_EEEENS5_IS9_EEEERKNS0_4pairIS7_iEEiic, symObjAddr: 0x104C, symBinAddr: 0x100008174, symSize: 0x328 }
  - { offsetInCU: 0xA470, offset: 0x1CD1D, size: 0x8, addend: 0x0, symName: __ZNSt3__16vectorINS0_INS_12basic_stringIcNS_11char_traitsIcEENS_9allocatorIcEEEENS4_IS6_EEEENS4_IS8_EEEC1B7v160006EOSA_, symObjAddr: 0x1374, symBinAddr: 0x10000849C, symSize: 0x34 }
  - { offsetInCU: 0xA4AB, offset: 0x1CD58, size: 0x8, addend: 0x0, symName: __ZN5Fleet19updateBoardComputerENSt3__16vectorINS1_INS0_12basic_stringIcNS0_11char_traitsIcEENS0_9allocatorIcEEEENS5_IS7_EEEENS5_IS9_EEEE, symObjAddr: 0x13A8, symBinAddr: 0x1000084D0, symSize: 0x16C }
  - { offsetInCU: 0xA599, offset: 0x1CE46, size: 0x8, addend: 0x0, symName: __ZNSt3__16vectorINS_4pairINS_12basic_stringIcNS_11char_traitsIcEENS_9allocatorIcEEEEiEENS5_IS8_EEE5beginB7v160006Ev, symObjAddr: 0x1514, symBinAddr: 0x10000863C, symSize: 0x30 }
  - { offsetInCU: 0xA5C1, offset: 0x1CE6E, size: 0x8, addend: 0x0, symName: __ZNSt3__16vectorINS_4pairINS_12basic_stringIcNS_11char_traitsIcEENS_9allocatorIcEEEEiEENS5_IS8_EEE3endB7v160006Ev, symObjAddr: 0x1544, symBinAddr: 0x10000866C, symSize: 0x30 }
  - { offsetInCU: 0xA5E9, offset: 0x1CE96, size: 0x8, addend: 0x0, symName: __ZNKSt3__111__wrap_iterIPNS_4pairINS_12basic_stringIcNS_11char_traitsIcEENS_9allocatorIcEEEEiEEEdeB7v160006Ev, symObjAddr: 0x15A8, symBinAddr: 0x1000086D0, symSize: 0x18 }
  - { offsetInCU: 0xA60F, offset: 0x1CEBC, size: 0x8, addend: 0x0, symName: __ZNKSt3__112basic_stringIcNS_11char_traitsIcEENS_9allocatorIcEEEixB7v160006Em, symObjAddr: 0x15C0, symBinAddr: 0x1000086E8, symSize: 0x30 }
  - { offsetInCU: 0xA644, offset: 0x1CEF1, size: 0x8, addend: 0x0, symName: __ZNSt3__111__wrap_iterIPNS_4pairINS_12basic_stringIcNS_11char_traitsIcEENS_9allocatorIcEEEEiEEEppB7v160006Ev, symObjAddr: 0x15F0, symBinAddr: 0x100008718, symSize: 0x20 }
  - { offsetInCU: 0xA66A, offset: 0x1CF17, size: 0x8, addend: 0x0, symName: __ZN5Fleet10boatRemoveENSt3__16vectorINS1_INS0_12basic_stringIcNS0_11char_traitsIcEENS0_9allocatorIcEEEENS5_IS7_EEEENS5_IS9_EEEEc, symObjAddr: 0x17DC, symBinAddr: 0x100008738, symSize: 0x1D4 }
  - { offsetInCU: 0xA6F3, offset: 0x1CFA0, size: 0x8, addend: 0x0, symName: __ZN5Fleet17allShipsDestroyedENSt3__16vectorINS1_INS0_12basic_stringIcNS0_11char_traitsIcEENS0_9allocatorIcEEEENS5_IS7_EEEENS5_IS9_EEEE, symObjAddr: 0x19DC, symBinAddr: 0x10000890C, symSize: 0x1B0 }
  - { offsetInCU: 0xA76E, offset: 0x1D01B, size: 0x8, addend: 0x0, symName: __ZNSt3__16vectorINS_4pairINS_12basic_stringIcNS_11char_traitsIcEENS_9allocatorIcEEEEiEENS5_IS8_EEEC2B7v160006Ev, symObjAddr: 0x1BC0, symBinAddr: 0x100008ABC, symSize: 0x4C }
  - { offsetInCU: 0xA7A4, offset: 0x1D051, size: 0x8, addend: 0x0, symName: __ZNSt3__117__compressed_pairIPNS_4pairINS_12basic_stringIcNS_11char_traitsIcEENS_9allocatorIcEEEEiEENS5_IS8_EEEC1B7v160006IDnNS_18__default_init_tagEEEOT_OT0_, symObjAddr: 0x1C0C, symBinAddr: 0x100008B08, symSize: 0x3C }
  - { offsetInCU: 0xA7FC, offset: 0x1D0A9, size: 0x8, addend: 0x0, symName: __ZNSt3__117__compressed_pairIPNS_4pairINS_12basic_stringIcNS_11char_traitsIcEENS_9allocatorIcEEEEiEENS5_IS8_EEEC2B7v160006IDnNS_18__default_init_tagEEEOT_OT0_, symObjAddr: 0x1C58, symBinAddr: 0x100008B54, symSize: 0x40 }
  - { offsetInCU: 0xA854, offset: 0x1D101, size: 0x8, addend: 0x0, symName: __ZNSt3__122__compressed_pair_elemIPNS_4pairINS_12basic_stringIcNS_11char_traitsIcEENS_9allocatorIcEEEEiEELi0ELb0EEC2B7v160006IDnvEEOT_, symObjAddr: 0x1C98, symBinAddr: 0x100008B94, symSize: 0x1C }
  - { offsetInCU: 0xA896, offset: 0x1D143, size: 0x8, addend: 0x0, symName: __ZNSt3__122__compressed_pair_elemINS_9allocatorINS_4pairINS_12basic_stringIcNS_11char_traitsIcEENS1_IcEEEEiEEEELi1ELb1EEC2B7v160006ENS_18__default_init_tagE, symObjAddr: 0x1CB4, symBinAddr: 0x100008BB0, symSize: 0x2C }
  - { offsetInCU: 0xA8CB, offset: 0x1D178, size: 0x8, addend: 0x0, symName: __ZNSt3__19allocatorINS_4pairINS_12basic_stringIcNS_11char_traitsIcEENS0_IcEEEEiEEEC2B7v160006Ev, symObjAddr: 0x1CE0, symBinAddr: 0x100008BDC, symSize: 0x2C }
  - { offsetInCU: 0xA8F5, offset: 0x1D1A2, size: 0x8, addend: 0x0, symName: __ZNSt3__116__non_trivial_ifILb1ENS_9allocatorINS_4pairINS_12basic_stringIcNS_11char_traitsIcEENS1_IcEEEEiEEEEEC2B7v160006Ev, symObjAddr: 0x1D0C, symBinAddr: 0x100008C08, symSize: 0x14 }
  - { offsetInCU: 0xA91F, offset: 0x1D1CC, size: 0x8, addend: 0x0, symName: __ZNSt3__16vectorINS_4pairINS_12basic_stringIcNS_11char_traitsIcEENS_9allocatorIcEEEEiEENS5_IS8_EEED2B7v160006Ev, symObjAddr: 0x1D3C, symBinAddr: 0x100008C1C, symSize: 0x3C }
  - { offsetInCU: 0xA949, offset: 0x1D1F6, size: 0x8, addend: 0x0, symName: __ZNSt3__16vectorINS_4pairINS_12basic_stringIcNS_11char_traitsIcEENS_9allocatorIcEEEEiEENS5_IS8_EEE16__destroy_vectorC1ERSA_, symObjAddr: 0x1D78, symBinAddr: 0x100008C58, symSize: 0x34 }
  - { offsetInCU: 0xA982, offset: 0x1D22F, size: 0x8, addend: 0x0, symName: __ZNSt3__16vectorINS_4pairINS_12basic_stringIcNS_11char_traitsIcEENS_9allocatorIcEEEEiEENS5_IS8_EEE16__destroy_vectorclB7v160006Ev, symObjAddr: 0x1DAC, symBinAddr: 0x100008C8C, symSize: 0x9C }
  - { offsetInCU: 0xA9A8, offset: 0x1D255, size: 0x8, addend: 0x0, symName: __ZNSt3__16vectorINS_4pairINS_12basic_stringIcNS_11char_traitsIcEENS_9allocatorIcEEEEiEENS5_IS8_EEE16__destroy_vectorC2ERSA_, symObjAddr: 0x1E48, symBinAddr: 0x100008D28, symSize: 0x20 }
  - { offsetInCU: 0xA9E1, offset: 0x1D28E, size: 0x8, addend: 0x0, symName: __ZNKSt3__16vectorINS_4pairINS_12basic_stringIcNS_11char_traitsIcEENS_9allocatorIcEEEEiEENS5_IS8_EEE17__annotate_deleteB7v160006Ev, symObjAddr: 0x1E68, symBinAddr: 0x100008D48, symSize: 0xB8 }
  - { offsetInCU: 0xAA07, offset: 0x1D2B4, size: 0x8, addend: 0x0, symName: __ZNSt3__16vectorINS_4pairINS_12basic_stringIcNS_11char_traitsIcEENS_9allocatorIcEEEEiEENS5_IS8_EEE7__clearB7v160006Ev, symObjAddr: 0x1F30, symBinAddr: 0x100008E10, symSize: 0x28 }
  - { offsetInCU: 0xAA2D, offset: 0x1D2DA, size: 0x8, addend: 0x0, symName: __ZNSt3__116allocator_traitsINS_9allocatorINS_4pairINS_12basic_stringIcNS_11char_traitsIcEENS1_IcEEEEiEEEEE10deallocateB7v160006ERS9_PS8_m, symObjAddr: 0x1F58, symBinAddr: 0x100008E38, symSize: 0x34 }
  - { offsetInCU: 0xAA6F, offset: 0x1D31C, size: 0x8, addend: 0x0, symName: __ZNSt3__16vectorINS_4pairINS_12basic_stringIcNS_11char_traitsIcEENS_9allocatorIcEEEEiEENS5_IS8_EEE7__allocB7v160006Ev, symObjAddr: 0x1F8C, symBinAddr: 0x100008E6C, symSize: 0x28 }
  - { offsetInCU: 0xAA95, offset: 0x1D342, size: 0x8, addend: 0x0, symName: __ZNKSt3__16vectorINS_4pairINS_12basic_stringIcNS_11char_traitsIcEENS_9allocatorIcEEEEiEENS5_IS8_EEE8capacityB7v160006Ev, symObjAddr: 0x1FB4, symBinAddr: 0x100008E94, symSize: 0x40 }
  - { offsetInCU: 0xAABB, offset: 0x1D368, size: 0x8, addend: 0x0, symName: __ZNKSt3__16vectorINS_4pairINS_12basic_stringIcNS_11char_traitsIcEENS_9allocatorIcEEEEiEENS5_IS8_EEE31__annotate_contiguous_containerB7v160006EPKvSC_SC_SC_, symObjAddr: 0x1FF4, symBinAddr: 0x100008ED4, symSize: 0x20 }
  - { offsetInCU: 0xAB11, offset: 0x1D3BE, size: 0x8, addend: 0x0, symName: __ZNKSt3__16vectorINS_4pairINS_12basic_stringIcNS_11char_traitsIcEENS_9allocatorIcEEEEiEENS5_IS8_EEE4dataB7v160006Ev, symObjAddr: 0x2014, symBinAddr: 0x100008EF4, symSize: 0x28 }
  - { offsetInCU: 0xAB37, offset: 0x1D3E4, size: 0x8, addend: 0x0, symName: __ZNSt3__16vectorINS_4pairINS_12basic_stringIcNS_11char_traitsIcEENS_9allocatorIcEEEEiEENS5_IS8_EEE22__base_destruct_at_endB7v160006EPS8_, symObjAddr: 0x2050, symBinAddr: 0x100008F30, symSize: 0xA0 }
  - { offsetInCU: 0xAB7B, offset: 0x1D428, size: 0x8, addend: 0x0, symName: __ZNSt3__116allocator_traitsINS_9allocatorINS_4pairINS_12basic_stringIcNS_11char_traitsIcEENS1_IcEEEEiEEEEE7destroyB7v160006IS8_vEEvRS9_PT_, symObjAddr: 0x20F0, symBinAddr: 0x100008FD0, symSize: 0x2C }
  - { offsetInCU: 0xABB8, offset: 0x1D465, size: 0x8, addend: 0x0, symName: __ZNSt3__19allocatorINS_4pairINS_12basic_stringIcNS_11char_traitsIcEENS0_IcEEEEiEEE7destroyB7v160006EPS7_, symObjAddr: 0x211C, symBinAddr: 0x100008FFC, symSize: 0x28 }
  - { offsetInCU: 0xABEC, offset: 0x1D499, size: 0x8, addend: 0x0, symName: __ZNSt3__14pairINS_12basic_stringIcNS_11char_traitsIcEENS_9allocatorIcEEEEiED1Ev, symObjAddr: 0x2144, symBinAddr: 0x100009024, symSize: 0x2C }
  - { offsetInCU: 0xAC18, offset: 0x1D4C5, size: 0x8, addend: 0x0, symName: __ZNSt3__14pairINS_12basic_stringIcNS_11char_traitsIcEENS_9allocatorIcEEEEiED2Ev, symObjAddr: 0x2170, symBinAddr: 0x100009050, symSize: 0x2C }
  - { offsetInCU: 0xAC44, offset: 0x1D4F1, size: 0x8, addend: 0x0, symName: __ZNSt3__19allocatorINS_4pairINS_12basic_stringIcNS_11char_traitsIcEENS0_IcEEEEiEEE10deallocateB7v160006EPS7_m, symObjAddr: 0x219C, symBinAddr: 0x10000907C, symSize: 0x70 }
  - { offsetInCU: 0xAC86, offset: 0x1D533, size: 0x8, addend: 0x0, symName: __ZNSt3__117__compressed_pairIPNS_4pairINS_12basic_stringIcNS_11char_traitsIcEENS_9allocatorIcEEEEiEENS5_IS8_EEE6secondB7v160006Ev, symObjAddr: 0x2294, symBinAddr: 0x1000090EC, symSize: 0x24 }
  - { offsetInCU: 0xACAC, offset: 0x1D559, size: 0x8, addend: 0x0, symName: __ZNSt3__122__compressed_pair_elemINS_9allocatorINS_4pairINS_12basic_stringIcNS_11char_traitsIcEENS1_IcEEEEiEEEELi1ELb1EE5__getB7v160006Ev, symObjAddr: 0x22B8, symBinAddr: 0x100009110, symSize: 0x14 }
  - { offsetInCU: 0xACD2, offset: 0x1D57F, size: 0x8, addend: 0x0, symName: __ZNKSt3__16vectorINS_4pairINS_12basic_stringIcNS_11char_traitsIcEENS_9allocatorIcEEEEiEENS5_IS8_EEE9__end_capB7v160006Ev, symObjAddr: 0x22CC, symBinAddr: 0x100009124, symSize: 0x28 }
  - { offsetInCU: 0xACF8, offset: 0x1D5A5, size: 0x8, addend: 0x0, symName: __ZNKSt3__117__compressed_pairIPNS_4pairINS_12basic_stringIcNS_11char_traitsIcEENS_9allocatorIcEEEEiEENS5_IS8_EEE5firstB7v160006Ev, symObjAddr: 0x22F4, symBinAddr: 0x10000914C, symSize: 0x24 }
  - { offsetInCU: 0xAD1E, offset: 0x1D5CB, size: 0x8, addend: 0x0, symName: __ZNKSt3__122__compressed_pair_elemIPNS_4pairINS_12basic_stringIcNS_11char_traitsIcEENS_9allocatorIcEEEEiEELi0ELb0EE5__getB7v160006Ev, symObjAddr: 0x2318, symBinAddr: 0x100009170, symSize: 0x14 }
  - { offsetInCU: 0xAD44, offset: 0x1D5F1, size: 0x8, addend: 0x0, symName: __ZNSt3__16vectorINS_4pairINS_12basic_stringIcNS_11char_traitsIcEENS_9allocatorIcEEEEiEENS5_IS8_EEE13__move_assignERSA_NS_17integral_constantIbLb1EEE, symObjAddr: 0x232C, symBinAddr: 0x100009184, symSize: 0xA4 }
  - { offsetInCU: 0xAD87, offset: 0x1D634, size: 0x8, addend: 0x0, symName: __ZNSt3__16vectorINS_4pairINS_12basic_stringIcNS_11char_traitsIcEENS_9allocatorIcEEEEiEENS5_IS8_EEE13__vdeallocateEv, symObjAddr: 0x23D0, symBinAddr: 0x100009228, symSize: 0x8C }
  - { offsetInCU: 0xADAF, offset: 0x1D65C, size: 0x8, addend: 0x0, symName: __ZNSt3__16vectorINS_4pairINS_12basic_stringIcNS_11char_traitsIcEENS_9allocatorIcEEEEiEENS5_IS8_EEE19__move_assign_allocB7v160006ERSA_, symObjAddr: 0x245C, symBinAddr: 0x1000092B4, symSize: 0x2C }
  - { offsetInCU: 0xADE4, offset: 0x1D691, size: 0x8, addend: 0x0, symName: __ZNSt3__16vectorINS_4pairINS_12basic_stringIcNS_11char_traitsIcEENS_9allocatorIcEEEEiEENS5_IS8_EEE9__end_capB7v160006Ev, symObjAddr: 0x2488, symBinAddr: 0x1000092E0, symSize: 0x28 }
  - { offsetInCU: 0xAE0A, offset: 0x1D6B7, size: 0x8, addend: 0x0, symName: __ZNSt3__16vectorINS_4pairINS_12basic_stringIcNS_11char_traitsIcEENS_9allocatorIcEEEEiEENS5_IS8_EEE5clearB7v160006Ev, symObjAddr: 0x24C4, symBinAddr: 0x10000931C, symSize: 0x68 }
  - { offsetInCU: 0xAE3F, offset: 0x1D6EC, size: 0x8, addend: 0x0, symName: __ZNKSt3__16vectorINS_4pairINS_12basic_stringIcNS_11char_traitsIcEENS_9allocatorIcEEEEiEENS5_IS8_EEE17__annotate_shrinkB7v160006Em, symObjAddr: 0x252C, symBinAddr: 0x100009384, symSize: 0xB4 }
  - { offsetInCU: 0xAE74, offset: 0x1D721, size: 0x8, addend: 0x0, symName: __ZNSt3__16vectorINS_4pairINS_12basic_stringIcNS_11char_traitsIcEENS_9allocatorIcEEEEiEENS5_IS8_EEE19__move_assign_allocB7v160006ERSA_NS_17integral_constantIbLb1EEE, symObjAddr: 0x25F0, symBinAddr: 0x100009448, symSize: 0x38 }
  - { offsetInCU: 0xAEB5, offset: 0x1D762, size: 0x8, addend: 0x0, symName: __ZNSt3__117__compressed_pairIPNS_4pairINS_12basic_stringIcNS_11char_traitsIcEENS_9allocatorIcEEEEiEENS5_IS8_EEE5firstB7v160006Ev, symObjAddr: 0x2628, symBinAddr: 0x100009480, symSize: 0x24 }
  - { offsetInCU: 0xAEDB, offset: 0x1D788, size: 0x8, addend: 0x0, symName: __ZNSt3__122__compressed_pair_elemIPNS_4pairINS_12basic_stringIcNS_11char_traitsIcEENS_9allocatorIcEEEEiEELi0ELb0EE5__getB7v160006Ev, symObjAddr: 0x264C, symBinAddr: 0x1000094A4, symSize: 0x14 }
  - { offsetInCU: 0xAFF7, offset: 0x1D8A4, size: 0x8, addend: 0x0, symName: __ZNKSt3__113basic_istreamIcNS_11char_traitsIcEEE6sentrycvbB7v160006Ev, symObjAddr: 0x5B6C, symBinAddr: 0x1000094B8, symSize: 0x1C }
  - { offsetInCU: 0xB01D, offset: 0x1D8CA, size: 0x8, addend: 0x0, symName: __ZNSt3__115basic_streambufIcNS_11char_traitsIcEEE6sbumpcB7v160006Ev, symObjAddr: 0x5B88, symBinAddr: 0x1000094D4, symSize: 0x78 }
  - { offsetInCU: 0xB043, offset: 0x1D8F0, size: 0x8, addend: 0x0, symName: __ZNSt3__111char_traitsIcE12to_char_typeEi, symObjAddr: 0x5C00, symBinAddr: 0x10000954C, symSize: 0x18 }
  - { offsetInCU: 0xB066, offset: 0x1D913, size: 0x8, addend: 0x0, symName: __ZNSt3__18ios_base18__setstate_nothrowB7v160006Ej, symObjAddr: 0x5C18, symBinAddr: 0x100009564, symSize: 0x64 }
  - { offsetInCU: 0xB09B, offset: 0x1D948, size: 0x8, addend: 0x0, symName: __ZNKSt3__19basic_iosIcNS_11char_traitsIcEEE10exceptionsB7v160006Ev, symObjAddr: 0x5C7C, symBinAddr: 0x1000095C8, symSize: 0x24 }
  - { offsetInCU: 0xB0C1, offset: 0x1D96E, size: 0x8, addend: 0x0, symName: __ZNSt3__111char_traitsIcE11to_int_typeEc, symObjAddr: 0x5CA0, symBinAddr: 0x1000095EC, symSize: 0x14 }
  - { offsetInCU: 0xB0E4, offset: 0x1D991, size: 0x8, addend: 0x0, symName: __ZNKSt3__18ios_base10exceptionsB7v160006Ev, symObjAddr: 0x5CB4, symBinAddr: 0x100009600, symSize: 0x18 }
  - { offsetInCU: 0xB117, offset: 0x1D9C4, size: 0x8, addend: 0x0, symName: __ZNSt3__116allocator_traitsINS_9allocatorIcEEE37select_on_container_copy_constructionB7v160006IS2_vvEES2_RKS2_, symObjAddr: 0x5CCC, symBinAddr: 0x100009618, symSize: 0x10 }
  - { offsetInCU: 0xB146, offset: 0x1D9F3, size: 0x8, addend: 0x0, symName: __ZNKSt3__112basic_stringIcNS_11char_traitsIcEENS_9allocatorIcEEE13get_allocatorB7v160006Ev, symObjAddr: 0x5CDC, symBinAddr: 0x100009628, symSize: 0x24 }
  - { offsetInCU: 0xB16C, offset: 0x1DA19, size: 0x8, addend: 0x0, symName: __ZNSt3__112basic_stringIcNS_11char_traitsIcEENS_9allocatorIcEEEC1B7v160006ENS_24__uninitialized_size_tagEmRKS4_, symObjAddr: 0x5D00, symBinAddr: 0x10000964C, symSize: 0x3C }
  - { offsetInCU: 0xB1C0, offset: 0x1DA6D, size: 0x8, addend: 0x0, symName: __ZNSt3__112basic_stringIcNS_11char_traitsIcEENS_9allocatorIcEEE13__get_pointerB7v160006Ev, symObjAddr: 0x5D50, symBinAddr: 0x10000969C, symSize: 0x54 }
  - { offsetInCU: 0xB1E6, offset: 0x1DA93, size: 0x8, addend: 0x0, symName: __ZNSt3__111char_traitsIcE4copyEPcPKcm, symObjAddr: 0x5DA4, symBinAddr: 0x1000096F0, symSize: 0x80 }
  - { offsetInCU: 0xB225, offset: 0x1DAD2, size: 0x8, addend: 0x0, symName: __ZNSt3__111char_traitsIcE6assignEPcmc, symObjAddr: 0x5E24, symBinAddr: 0x100009770, symSize: 0x58 }
  - { offsetInCU: 0xB264, offset: 0x1DB11, size: 0x8, addend: 0x0, symName: __ZNKSt3__112basic_stringIcNS_11char_traitsIcEENS_9allocatorIcEEE7__allocB7v160006Ev, symObjAddr: 0x5E7C, symBinAddr: 0x1000097C8, symSize: 0x24 }
  - { offsetInCU: 0xB28A, offset: 0x1DB37, size: 0x8, addend: 0x0, symName: __ZNKSt3__117__compressed_pairINS_12basic_stringIcNS_11char_traitsIcEENS_9allocatorIcEEE5__repES5_E6secondB7v160006Ev, symObjAddr: 0x5EA0, symBinAddr: 0x1000097EC, symSize: 0x24 }
  - { offsetInCU: 0xB2B0, offset: 0x1DB5D, size: 0x8, addend: 0x0, symName: __ZNKSt3__122__compressed_pair_elemINS_9allocatorIcEELi1ELb1EE5__getB7v160006Ev, symObjAddr: 0x5EC4, symBinAddr: 0x100009810, symSize: 0x14 }
  - { offsetInCU: 0xB2D6, offset: 0x1DB83, size: 0x8, addend: 0x0, symName: __ZNSt3__112basic_stringIcNS_11char_traitsIcEENS_9allocatorIcEEEC2B7v160006ENS_24__uninitialized_size_tagEmRKS4_, symObjAddr: 0x5ED8, symBinAddr: 0x100009824, symSize: 0x118 }
  - { offsetInCU: 0xB357, offset: 0x1DC04, size: 0x8, addend: 0x0, symName: __ZNSt3__117__compressed_pairINS_12basic_stringIcNS_11char_traitsIcEENS_9allocatorIcEEE5__repES5_EC1B7v160006INS_18__default_init_tagERKS5_EEOT_OT0_, symObjAddr: 0x5FF0, symBinAddr: 0x10000993C, symSize: 0x3C }
  - { offsetInCU: 0xB3AF, offset: 0x1DC5C, size: 0x8, addend: 0x0, symName: __ZNKSt3__112basic_stringIcNS_11char_traitsIcEENS_9allocatorIcEEE8max_sizeB7v160006Ev, symObjAddr: 0x602C, symBinAddr: 0x100009978, symSize: 0xAC }
  - { offsetInCU: 0xB402, offset: 0x1DCAF, size: 0x8, addend: 0x0, symName: __ZNKSt3__112basic_stringIcNS_11char_traitsIcEENS_9allocatorIcEEE20__throw_length_errorB7v160006Ev, symObjAddr: 0x60D8, symBinAddr: 0x100009A24, symSize: 0x1C }
  - { offsetInCU: 0xB428, offset: 0x1DCD5, size: 0x8, addend: 0x0, symName: __ZNSt3__112basic_stringIcNS_11char_traitsIcEENS_9allocatorIcEEE13__fits_in_ssoB7v160006Em, symObjAddr: 0x60F4, symBinAddr: 0x100009A40, symSize: 0x4C }
  - { offsetInCU: 0xB44C, offset: 0x1DCF9, size: 0x8, addend: 0x0, symName: __ZNSt3__117__compressed_pairINS_12basic_stringIcNS_11char_traitsIcEENS_9allocatorIcEEE5__repES5_E5firstB7v160006Ev, symObjAddr: 0x6140, symBinAddr: 0x100009A8C, symSize: 0x24 }
  - { offsetInCU: 0xB472, offset: 0x1DD1F, size: 0x8, addend: 0x0, symName: __ZNSt3__112basic_stringIcNS_11char_traitsIcEENS_9allocatorIcEEE16__set_short_sizeB7v160006Em, symObjAddr: 0x6164, symBinAddr: 0x100009AB0, symSize: 0x78 }
  - { offsetInCU: 0xB4A7, offset: 0x1DD54, size: 0x8, addend: 0x0, symName: __ZNSt3__112basic_stringIcNS_11char_traitsIcEENS_9allocatorIcEEE11__recommendB7v160006Em, symObjAddr: 0x61DC, symBinAddr: 0x100009B28, symSize: 0x9C }
  - { offsetInCU: 0xB4DA, offset: 0x1DD87, size: 0x8, addend: 0x0, symName: __ZNSt3__116allocator_traitsINS_9allocatorIcEEE8allocateB7v160006ERS2_m, symObjAddr: 0x6278, symBinAddr: 0x100009BC4, symSize: 0x2C }
  - { offsetInCU: 0xB50D, offset: 0x1DDBA, size: 0x8, addend: 0x0, symName: __ZNSt3__112basic_stringIcNS_11char_traitsIcEENS_9allocatorIcEEE7__allocB7v160006Ev, symObjAddr: 0x62A4, symBinAddr: 0x100009BF0, symSize: 0x24 }
  - { offsetInCU: 0xB533, offset: 0x1DDE0, size: 0x8, addend: 0x0, symName: __ZNSt3__112basic_stringIcNS_11char_traitsIcEENS_9allocatorIcEEE16__begin_lifetimeB7v160006EPcm, symObjAddr: 0x62C8, symBinAddr: 0x100009C14, symSize: 0x14 }
  - { offsetInCU: 0xB566, offset: 0x1DE13, size: 0x8, addend: 0x0, symName: __ZNSt3__112basic_stringIcNS_11char_traitsIcEENS_9allocatorIcEEE14__set_long_capB7v160006Em, symObjAddr: 0x62DC, symBinAddr: 0x100009C28, symSize: 0x70 }
  - { offsetInCU: 0xB59B, offset: 0x1DE48, size: 0x8, addend: 0x0, symName: __ZNSt3__112basic_stringIcNS_11char_traitsIcEENS_9allocatorIcEEE18__set_long_pointerB7v160006EPc, symObjAddr: 0x634C, symBinAddr: 0x100009C98, symSize: 0x38 }
  - { offsetInCU: 0xB5D0, offset: 0x1DE7D, size: 0x8, addend: 0x0, symName: __ZNSt3__112basic_stringIcNS_11char_traitsIcEENS_9allocatorIcEEE15__set_long_sizeB7v160006Em, symObjAddr: 0x6384, symBinAddr: 0x100009CD0, symSize: 0x38 }
  - { offsetInCU: 0xB605, offset: 0x1DEB2, size: 0x8, addend: 0x0, symName: __ZNSt3__117__compressed_pairINS_12basic_stringIcNS_11char_traitsIcEENS_9allocatorIcEEE5__repES5_EC2B7v160006INS_18__default_init_tagERKS5_EEOT_OT0_, symObjAddr: 0x63BC, symBinAddr: 0x100009D08, symSize: 0x40 }
  - { offsetInCU: 0xB65D, offset: 0x1DF0A, size: 0x8, addend: 0x0, symName: __ZNSt3__122__compressed_pair_elemINS_9allocatorIcEELi1ELb1EEC2B7v160006IRKS2_vEEOT_, symObjAddr: 0x63FC, symBinAddr: 0x100009D48, symSize: 0x18 }
  - { offsetInCU: 0xB69F, offset: 0x1DF4C, size: 0x8, addend: 0x0, symName: __ZNSt3__116allocator_traitsINS_9allocatorIcEEE8max_sizeB7v160006IS2_vEEmRKS2_, symObjAddr: 0x6414, symBinAddr: 0x100009D60, symSize: 0x24 }
  - { offsetInCU: 0xB6CD, offset: 0x1DF7A, size: 0x8, addend: 0x0, symName: __ZNSt3__114numeric_limitsImE3maxB7v160006Ev, symObjAddr: 0x6438, symBinAddr: 0x100009D84, symSize: 0x14 }
  - { offsetInCU: 0xB6E1, offset: 0x1DF8E, size: 0x8, addend: 0x0, symName: __ZNKSt3__19allocatorIcE8max_sizeB7v160006Ev, symObjAddr: 0x644C, symBinAddr: 0x100009D98, symSize: 0x14 }
  - { offsetInCU: 0xB707, offset: 0x1DFB4, size: 0x8, addend: 0x0, symName: __ZNSt3__123__libcpp_numeric_limitsImLb1EE3maxB7v160006Ev, symObjAddr: 0x6460, symBinAddr: 0x100009DAC, symSize: 0x8 }
  - { offsetInCU: 0xB71B, offset: 0x1DFC8, size: 0x8, addend: 0x0, symName: __ZNSt3__122__compressed_pair_elemINS_12basic_stringIcNS_11char_traitsIcEENS_9allocatorIcEEE5__repELi0ELb0EE5__getB7v160006Ev, symObjAddr: 0x6468, symBinAddr: 0x100009DB4, symSize: 0x14 }
  - { offsetInCU: 0xB741, offset: 0x1DFEE, size: 0x8, addend: 0x0, symName: __ZNSt3__112basic_stringIcNS_11char_traitsIcEENS_9allocatorIcEEE10__align_itB7v160006ILm16EEEmm, symObjAddr: 0x647C, symBinAddr: 0x100009DC8, symSize: 0x1C }
  - { offsetInCU: 0xB76F, offset: 0x1E01C, size: 0x8, addend: 0x0, symName: __ZNSt3__19allocatorIcE8allocateB7v160006Em, symObjAddr: 0x6498, symBinAddr: 0x100009DE4, symSize: 0x84 }
  - { offsetInCU: 0xB7A3, offset: 0x1E050, size: 0x8, addend: 0x0, symName: __ZNSt3__117__compressed_pairINS_12basic_stringIcNS_11char_traitsIcEENS_9allocatorIcEEE5__repES5_E6secondB7v160006Ev, symObjAddr: 0x651C, symBinAddr: 0x100009E68, symSize: 0x24 }
  - { offsetInCU: 0xB7C9, offset: 0x1E076, size: 0x8, addend: 0x0, symName: __ZNSt3__122__compressed_pair_elemINS_9allocatorIcEELi1ELb1EE5__getB7v160006Ev, symObjAddr: 0x6540, symBinAddr: 0x100009E8C, symSize: 0x14 }
  - { offsetInCU: 0xB7EF, offset: 0x1E09C, size: 0x8, addend: 0x0, symName: __ZNSt3__112basic_stringIcNS_11char_traitsIcEENS_9allocatorIcEEE18__get_long_pointerB7v160006Ev, symObjAddr: 0x6554, symBinAddr: 0x100009EA0, symSize: 0x28 }
  - { offsetInCU: 0xB815, offset: 0x1E0C2, size: 0x8, addend: 0x0, symName: __ZNSt3__112basic_stringIcNS_11char_traitsIcEENS_9allocatorIcEEE19__get_short_pointerB7v160006Ev, symObjAddr: 0x657C, symBinAddr: 0x100009EC8, symSize: 0x28 }
  - { offsetInCU: 0xB83B, offset: 0x1E0E8, size: 0x8, addend: 0x0, symName: __ZNSt3__114pointer_traitsIPcE10pointer_toB7v160006ERc, symObjAddr: 0x65A4, symBinAddr: 0x100009EF0, symSize: 0x14 }
  - { offsetInCU: 0xB89A, offset: 0x1E147, size: 0x8, addend: 0x0, symName: __ZNKSt3__114__copy_trivialclB7v160006IKccLi0EEENS_4pairIPT_PT0_EES5_S5_S7_, symObjAddr: 0x67E8, symBinAddr: 0x10000A134, symSize: 0x48 }
  - { offsetInCU: 0xB91E, offset: 0x1E1CB, size: 0x8, addend: 0x0, symName: __ZNSt3__14pairIPKcS2_EC1B7v160006ERKS2_S5_, symObjAddr: 0x6964, symBinAddr: 0x10000A2B0, symSize: 0x3C }
  - { offsetInCU: 0xB964, offset: 0x1E211, size: 0x8, addend: 0x0, symName: __ZNSt3__14pairIPKcS2_EC2B7v160006ERKS2_S5_, symObjAddr: 0x69A0, symBinAddr: 0x10000A2EC, symSize: 0x34 }
  - { offsetInCU: 0xB9AA, offset: 0x1E257, size: 0x8, addend: 0x0, symName: __ZNSt3__118__unwrap_iter_implIPKcLb1EE8__unwrapB7v160006ES2_, symObjAddr: 0x69D4, symBinAddr: 0x10000A320, symSize: 0x24 }
  - { offsetInCU: 0xB9CD, offset: 0x1E27A, size: 0x8, addend: 0x0, symName: __ZNSt3__14pairIPKcPcEC1B7v160006ERKS2_RKS3_, symObjAddr: 0x6AAC, symBinAddr: 0x10000A3F8, symSize: 0x3C }
  - { offsetInCU: 0xBA13, offset: 0x1E2C0, size: 0x8, addend: 0x0, symName: __ZNSt3__14pairIPKcPcEC2B7v160006ERKS2_RKS3_, symObjAddr: 0x6AE8, symBinAddr: 0x10000A434, symSize: 0x34 }
  - { offsetInCU: 0xBA59, offset: 0x1E306, size: 0x8, addend: 0x0, symName: __ZNSt3__118__unwrap_iter_implIPcLb1EE8__unwrapB7v160006ES1_, symObjAddr: 0x6B1C, symBinAddr: 0x10000A468, symSize: 0x24 }
  - { offsetInCU: 0xBA7C, offset: 0x1E329, size: 0x8, addend: 0x0, symName: __ZNSt3__118__unwrap_iter_implIPKcLb1EE8__rewrapB7v160006ES2_S2_, symObjAddr: 0x6B90, symBinAddr: 0x10000A4DC, symSize: 0x48 }
  - { offsetInCU: 0xBAAD, offset: 0x1E35A, size: 0x8, addend: 0x0, symName: __ZNSt3__118__unwrap_iter_implIPcLb1EE8__rewrapB7v160006ES1_S1_, symObjAddr: 0x6BD8, symBinAddr: 0x10000A524, symSize: 0x48 }
  - { offsetInCU: 0xBADE, offset: 0x1E38B, size: 0x8, addend: 0x0, symName: __ZNSt3__16vectorINS0_INS_12basic_stringIcNS_11char_traitsIcEENS_9allocatorIcEEEENS4_IS6_EEEENS4_IS8_EEEC2B7v160006EOSA_, symObjAddr: 0x6CDC, symBinAddr: 0x10000A628, symSize: 0xD0 }
  - { offsetInCU: 0xBB19, offset: 0x1E3C6, size: 0x8, addend: 0x0, symName: __ZNSt3__16vectorINS_4pairINS_12basic_stringIcNS_11char_traitsIcEENS_9allocatorIcEEEEiEENS5_IS8_EEE11__make_iterB7v160006EPS8_, symObjAddr: 0x6DC0, symBinAddr: 0x10000A6F8, symSize: 0x34 }
  - { offsetInCU: 0xBB4E, offset: 0x1E3FB, size: 0x8, addend: 0x0, symName: __ZNSt3__111__wrap_iterIPNS_4pairINS_12basic_stringIcNS_11char_traitsIcEENS_9allocatorIcEEEEiEEEC1B7v160006EPKvS9_, symObjAddr: 0x6DF4, symBinAddr: 0x10000A72C, symSize: 0x3C }
  - { offsetInCU: 0xBB94, offset: 0x1E441, size: 0x8, addend: 0x0, symName: __ZNSt3__111__wrap_iterIPNS_4pairINS_12basic_stringIcNS_11char_traitsIcEENS_9allocatorIcEEEEiEEEC2B7v160006EPKvS9_, symObjAddr: 0x6E30, symBinAddr: 0x10000A768, symSize: 0x24 }
  - { offsetInCU: 0xBBDA, offset: 0x1E487, size: 0x8, addend: 0x0, symName: __ZNKSt3__111__wrap_iterIPNS_4pairINS_12basic_stringIcNS_11char_traitsIcEENS_9allocatorIcEEEEiEEE4baseB7v160006Ev, symObjAddr: 0x6E9C, symBinAddr: 0x10000A7D4, symSize: 0x18 }
  - { offsetInCU: 0x6FA0, offset: 0x254D7, size: 0x8, addend: 0x0, symName: __ZN8GameplayC2Ev, symObjAddr: 0x0, symBinAddr: 0x10000A7EC, symSize: 0xA3C }
  - { offsetInCU: 0x71C1, offset: 0x256F8, size: 0x8, addend: 0x0, symName: __ZN5Board15setAttackCoordsENSt3__14pairIiiEE, symObjAddr: 0xBA8, symBinAddr: 0x10000B228, symSize: 0x34 }
  - { offsetInCU: 0x7262, offset: 0x25799, size: 0x8, addend: 0x0, symName: __ZN5BoardD1Ev, symObjAddr: 0xC98, symBinAddr: 0x10000B25C, symSize: 0x2C }
  - { offsetInCU: 0x73AE, offset: 0x258E5, size: 0x8, addend: 0x0, symName: __ZN5FleetD1Ev, symObjAddr: 0xCC4, symBinAddr: 0x10000B288, symSize: 0x2C }
  - { offsetInCU: 0x73DA, offset: 0x25911, size: 0x8, addend: 0x0, symName: __ZN8GameplayC1Ev, symObjAddr: 0xCF0, symBinAddr: 0x10000B2B4, symSize: 0x2C }
  - { offsetInCU: 0x7406, offset: 0x2593D, size: 0x8, addend: 0x0, symName: __ZN5BoardD2Ev, symObjAddr: 0xDB0, symBinAddr: 0x10000B2E0, symSize: 0x30 }
  - { offsetInCU: 0x7432, offset: 0x25969, size: 0x8, addend: 0x0, symName: __ZN5FleetD2Ev, symObjAddr: 0xDE0, symBinAddr: 0x10000B310, symSize: 0x2C }
  - { offsetInCU: 0x6272, offset: 0x2BC98, size: 0x8, addend: 0x0, symName: __ZNSt3__17getlineB7v160006IcNS_11char_traitsIcEENS_9allocatorIcEEEERNS_13basic_istreamIT_T0_EES9_RNS_12basic_stringIS6_S7_T1_EE, symObjAddr: 0x788, symBinAddr: 0x10000BA58, symSize: 0x5C }
  - { offsetInCU: 0x62D5, offset: 0x2BCFB, size: 0x8, addend: 0x0, symName: __ZNSt3__19make_pairB7v160006IRNS_12basic_stringIcNS_11char_traitsIcEENS_9allocatorIcEEEERiEENS_4pairINS_18__unwrap_ref_decayIT_E4typeENSA_IT0_E4typeEEEOSB_OSE_, symObjAddr: 0x1084, symBinAddr: 0x10000C160, symSize: 0x40 }
  - { offsetInCU: 0x6324, offset: 0x2BD4A, size: 0x8, addend: 0x0, symName: __ZNSt3__17getlineB7v160006IcNS_11char_traitsIcEENS_9allocatorIcEEEERNS_13basic_istreamIT_T0_EES9_RNS_12basic_stringIS6_S7_T1_EES6_, symObjAddr: 0x1CB4, symBinAddr: 0x10000C57C, symSize: 0x238 }
  - { offsetInCU: 0x63E2, offset: 0x2BE08, size: 0x8, addend: 0x0, symName: __ZNSt3__125__debug_db_invalidate_allB7v160006INS_12basic_stringIcNS_11char_traitsIcEENS_9allocatorIcEEEEEEvPT_, symObjAddr: 0x22BC, symBinAddr: 0x10000C878, symSize: 0x10 }
  - { offsetInCU: 0x6413, offset: 0x2BE39, size: 0x8, addend: 0x0, symName: __ZNSt3__13maxB7v160006ImEERKT_S3_S3_, symObjAddr: 0x3800, symBinAddr: 0x10000CFC0, symSize: 0x2C }
  - { offsetInCU: 0x6456, offset: 0x2BE7C, size: 0x8, addend: 0x0, symName: __ZNSt3__13maxB7v160006ImNS_6__lessImmEEEERKT_S5_S5_T0_, symObjAddr: 0x3A78, symBinAddr: 0x10000D084, symSize: 0x54 }
  - { offsetInCU: 0x64B0, offset: 0x2BED6, size: 0x8, addend: 0x0, symName: __ZNSt3__119__allocate_at_leastB7v160006INS_9allocatorINS_4pairINS_12basic_stringIcNS_11char_traitsIcEENS1_IcEEEEiEEEEEENS_19__allocation_resultINS_16allocator_traitsIT_E7pointerEEERSC_m, symObjAddr: 0x3BDC, symBinAddr: 0x10000D1E8, symSize: 0x40 }
  - { offsetInCU: 0x64F3, offset: 0x2BF19, size: 0x8, addend: 0x0, symName: __ZNSt3__142__uninitialized_allocator_move_if_noexceptB7v160006INS_9allocatorINS_4pairINS_12basic_stringIcNS_11char_traitsIcEENS1_IcEEEEiEEEENS_16reverse_iteratorIPS8_EESC_SC_EET2_RT_T0_T1_SD_, symObjAddr: 0x3DBC, symBinAddr: 0x10000D3C8, symSize: 0x134 }
  - { offsetInCU: 0x6593, offset: 0x2BFB9, size: 0x8, addend: 0x0, symName: __ZNSt3__14swapB7v160006IPNS_4pairINS_12basic_stringIcNS_11char_traitsIcEENS_9allocatorIcEEEEiEEEEvRT_SB_, symObjAddr: 0x3F3C, symBinAddr: 0x10000D548, symSize: 0x3C }
  - { offsetInCU: 0x65E4, offset: 0x2C00A, size: 0x8, addend: 0x0, symName: __ZNSt3__122__make_exception_guardB7v160006INS_29_AllocatorDestroyRangeReverseINS_9allocatorINS_4pairINS_12basic_stringIcNS_11char_traitsIcEENS2_IcEEEEiEEEENS_16reverse_iteratorIPS9_EEEEEENS_28__exception_guard_exceptionsIT_EESG_, symObjAddr: 0x4034, symBinAddr: 0x10000D630, symSize: 0x4C }
  - { offsetInCU: 0x661A, offset: 0x2C040, size: 0x8, addend: 0x0, symName: __ZNSt3__1neB7v160006IPNS_4pairINS_12basic_stringIcNS_11char_traitsIcEENS_9allocatorIcEEEEiEES9_EEbRKNS_16reverse_iteratorIT_EERKNSA_IT0_EE, symObjAddr: 0x40C4, symBinAddr: 0x10000D6C0, symSize: 0x48 }
  - { offsetInCU: 0x6666, offset: 0x2C08C, size: 0x8, addend: 0x0, symName: __ZNSt3__112__to_addressB7v160006INS_16reverse_iteratorIPNS_4pairINS_12basic_stringIcNS_11char_traitsIcEENS_9allocatorIcEEEEiEEEEvEENS_5decayIDTclsr19__to_address_helperIT_EE6__callclsr3stdE7declvalIRKSD_EEEEE4typeESF_, symObjAddr: 0x410C, symBinAddr: 0x10000D708, symSize: 0x24 }
  - { offsetInCU: 0x66C5, offset: 0x2C0EB, size: 0x8, addend: 0x0, symName: __ZNSt3__119__allocator_destroyB7v160006INS_9allocatorINS_4pairINS_12basic_stringIcNS_11char_traitsIcEENS1_IcEEEEiEEEENS_16reverse_iteratorINSA_IPS8_EEEESD_EEvRT_T0_T1_, symObjAddr: 0x43C8, symBinAddr: 0x10000D9C4, symSize: 0x70 }
  - { offsetInCU: 0x672A, offset: 0x2C150, size: 0x8, addend: 0x0, symName: __ZNSt3__1neB7v160006INS_16reverse_iteratorIPNS_4pairINS_12basic_stringIcNS_11char_traitsIcEENS_9allocatorIcEEEEiEEEESB_EEbRKNS1_IT_EERKNS1_IT0_EE, symObjAddr: 0x4474, symBinAddr: 0x10000DA70, symSize: 0x60 }
  - { offsetInCU: 0x6776, offset: 0x2C19C, size: 0x8, addend: 0x0, symName: __ZNSt3__112__to_addressB7v160006INS_16reverse_iteratorINS1_IPNS_4pairINS_12basic_stringIcNS_11char_traitsIcEENS_9allocatorIcEEEEiEEEEEEvEENS_5decayIDTclsr19__to_address_helperIT_EE6__callclsr3stdE7declvalIRKSE_EEEEE4typeESG_, symObjAddr: 0x44D4, symBinAddr: 0x10000DAD0, symSize: 0x24 }
  - { offsetInCU: 0x6BBF, offset: 0x2C5E5, size: 0x8, addend: 0x0, symName: __ZNSt3__16vectorINS_4pairINS_12basic_stringIcNS_11char_traitsIcEENS_9allocatorIcEEEEiEENS5_IS8_EEE26__swap_out_circular_bufferERNS_14__split_bufferIS8_RS9_EE, symObjAddr: 0x362C, symBinAddr: 0x10000CDEC, symSize: 0x118 }
  - { offsetInCU: 0x8A34, offset: 0x2E45A, size: 0x8, addend: 0x0, symName: __ZN6ConfigC2Ev, symObjAddr: 0x0, symBinAddr: 0x10000B33C, symSize: 0x6C }
  - { offsetInCU: 0x8A60, offset: 0x2E486, size: 0x8, addend: 0x0, symName: __ZNSt3__112basic_stringIcNS_11char_traitsIcEENS_9allocatorIcEEEC1B7v160006Ev, symObjAddr: 0x6C, symBinAddr: 0x10000B3A8, symSize: 0x2C }
  - { offsetInCU: 0x8A8A, offset: 0x2E4B0, size: 0x8, addend: 0x0, symName: __ZN6ConfigC1Ev, symObjAddr: 0xD0, symBinAddr: 0x10000B3D4, symSize: 0x2C }
  - { offsetInCU: 0x8AB6, offset: 0x2E4DC, size: 0x8, addend: 0x0, symName: __ZN6Config9getConfigENSt3__112basic_stringIcNS0_11char_traitsIcEENS0_9allocatorIcEEEE, symObjAddr: 0xFC, symBinAddr: 0x10000B400, symSize: 0x4DC }
  - { offsetInCU: 0x8CEF, offset: 0x2E715, size: 0x8, addend: 0x0, symName: __ZNSt3__114basic_ifstreamIcNS_11char_traitsIcEEEC1ERKNS_12basic_stringIcS2_NS_9allocatorIcEEEEj, symObjAddr: 0x60C, symBinAddr: 0x10000B8DC, symSize: 0x17C }
  - { offsetInCU: 0x8D39, offset: 0x2E75F, size: 0x8, addend: 0x0, symName: __ZNKSt3__19basic_iosIcNS_11char_traitsIcEEEcvPvB7v160006Ev, symObjAddr: 0x7E4, symBinAddr: 0x10000BAB4, symSize: 0x4C }
  - { offsetInCU: 0x8D5F, offset: 0x2E785, size: 0x8, addend: 0x0, symName: __ZNKSt3__112basic_stringIcNS_11char_traitsIcEENS_9allocatorIcEEE6substrB7v160006Emm, symObjAddr: 0x830, symBinAddr: 0x10000BB00, symSize: 0x68 }
  - { offsetInCU: 0x8DA2, offset: 0x2E7C8, size: 0x8, addend: 0x0, symName: __ZNKSt3__112basic_stringIcNS_11char_traitsIcEENS_9allocatorIcEEE4findB7v160006EPKcm, symObjAddr: 0x9FC, symBinAddr: 0x10000BB68, symSize: 0x74 }
  - { offsetInCU: 0x8DE9, offset: 0x2E80F, size: 0x8, addend: 0x0, symName: __ZNKSt3__112basic_stringIcNS_11char_traitsIcEENS_9allocatorIcEEE6lengthB7v160006Ev, symObjAddr: 0xA70, symBinAddr: 0x10000BBDC, symSize: 0x24 }
  - { offsetInCU: 0x8E14, offset: 0x2E83A, size: 0x8, addend: 0x0, symName: __ZNSt3__114basic_ifstreamIcNS_11char_traitsIcEEED1Ev, symObjAddr: 0xAF8, symBinAddr: 0x10000BC00, symSize: 0x70 }
  - { offsetInCU: 0x8E41, offset: 0x2E867, size: 0x8, addend: 0x0, symName: __ZN6Config13getBoatConfigENSt3__112basic_stringIcNS0_11char_traitsIcEENS0_9allocatorIcEEEE, symObjAddr: 0xB68, symBinAddr: 0x10000BC70, symSize: 0x4C4 }
  - { offsetInCU: 0x8F26, offset: 0x2E94C, size: 0x8, addend: 0x0, symName: __ZNSt3__14pairINS_12basic_stringIcNS_11char_traitsIcEENS_9allocatorIcEEEEiEC1B7v160006Ev, symObjAddr: 0x1058, symBinAddr: 0x10000C134, symSize: 0x2C }
  - { offsetInCU: 0x8F50, offset: 0x2E976, size: 0x8, addend: 0x0, symName: __ZNSt3__14pairINS_12basic_stringIcNS_11char_traitsIcEENS_9allocatorIcEEEEiEaSB7v160006ERKS7_, symObjAddr: 0x10C4, symBinAddr: 0x10000C1A0, symSize: 0x40 }
  - { offsetInCU: 0x8F83, offset: 0x2E9A9, size: 0x8, addend: 0x0, symName: __ZNSt3__16vectorINS_4pairINS_12basic_stringIcNS_11char_traitsIcEENS_9allocatorIcEEEEiEENS5_IS8_EEE9push_backB7v160006ERKS8_, symObjAddr: 0x1130, symBinAddr: 0x10000C1E0, symSize: 0x6C }
  - { offsetInCU: 0x8FBB, offset: 0x2E9E1, size: 0x8, addend: 0x0, symName: __ZNSt3__114basic_ifstreamIcNS_11char_traitsIcEEED2Ev, symObjAddr: 0x11C8, symBinAddr: 0x10000C24C, symSize: 0x9C }
  - { offsetInCU: 0x8FF5, offset: 0x2EA1B, size: 0x8, addend: 0x0, symName: __ZTv0_n24_NSt3__114basic_ifstreamIcNS_11char_traitsIcEEED1Ev, symObjAddr: 0x1264, symBinAddr: 0x10000C2E8, symSize: 0x28 }
  - { offsetInCU: 0x900C, offset: 0x2EA32, size: 0x8, addend: 0x0, symName: __ZNSt3__112basic_stringIcNS_11char_traitsIcEENS_9allocatorIcEEEC2B7v160006Ev, symObjAddr: 0x12B8, symBinAddr: 0x10000C310, symSize: 0x44 }
  - { offsetInCU: 0x9036, offset: 0x2EA5C, size: 0x8, addend: 0x0, symName: __ZNSt3__112basic_stringIcNS_11char_traitsIcEENS_9allocatorIcEEE14__default_initB7v160006Ev, symObjAddr: 0x1348, symBinAddr: 0x10000C354, symSize: 0xB0 }
  - { offsetInCU: 0x9089, offset: 0x2EAAF, size: 0x8, addend: 0x0, symName: __ZNSt3__19basic_iosIcNS_11char_traitsIcEEEC2B7v160006Ev, symObjAddr: 0x1934, symBinAddr: 0x10000C404, symSize: 0x44 }
  - { offsetInCU: 0x90B3, offset: 0x2EAD9, size: 0x8, addend: 0x0, symName: __ZNSt3__113basic_istreamIcNS_11char_traitsIcEEEC2B7v160006EPNS_15basic_streambufIcS2_EE, symObjAddr: 0x1978, symBinAddr: 0x10000C448, symSize: 0x64 }
  - { offsetInCU: 0x90F7, offset: 0x2EB1D, size: 0x8, addend: 0x0, symName: __ZNSt3__113basic_filebufIcNS_11char_traitsIcEEE4openERKNS_12basic_stringIcS2_NS_9allocatorIcEEEEj, symObjAddr: 0x19DC, symBinAddr: 0x10000C4AC, symSize: 0x44 }
  - { offsetInCU: 0x913C, offset: 0x2EB62, size: 0x8, addend: 0x0, symName: __ZNSt3__18ios_baseC2B7v160006Ev, symObjAddr: 0x1A4C, symBinAddr: 0x10000C4F0, symSize: 0x24 }
  - { offsetInCU: 0x9165, offset: 0x2EB8B, size: 0x8, addend: 0x0, symName: __ZNSt3__19basic_iosIcNS_11char_traitsIcEEE4initB7v160006EPNS_15basic_streambufIcS2_EE, symObjAddr: 0x1A70, symBinAddr: 0x10000C514, symSize: 0x44 }
  - { offsetInCU: 0x919D, offset: 0x2EBC3, size: 0x8, addend: 0x0, symName: __ZNKSt3__112basic_stringIcNS_11char_traitsIcEENS_9allocatorIcEEE5c_strB7v160006Ev, symObjAddr: 0x1ABC, symBinAddr: 0x10000C558, symSize: 0x24 }
  - { offsetInCU: 0x91E3, offset: 0x2EC09, size: 0x8, addend: 0x0, symName: __ZNSt3__112basic_stringIcNS_11char_traitsIcEENS_9allocatorIcEEE5clearB7v160006Ev, symObjAddr: 0x1F94, symBinAddr: 0x10000C7B4, symSize: 0x9C }
  - { offsetInCU: 0x920C, offset: 0x2EC32, size: 0x8, addend: 0x0, symName: __ZNSt3__111char_traitsIcE2eqEcc, symObjAddr: 0x210C, symBinAddr: 0x10000C850, symSize: 0x28 }
  - { offsetInCU: 0x923D, offset: 0x2EC63, size: 0x8, addend: 0x0, symName: __ZNSt3__111char_traitsIcE6assignERcRKc, symObjAddr: 0x22CC, symBinAddr: 0x10000C888, symSize: 0x24 }
  - { offsetInCU: 0x926E, offset: 0x2EC94, size: 0x8, addend: 0x0, symName: __ZNKSt3__19basic_iosIcNS_11char_traitsIcEEE4failB7v160006Ev, symObjAddr: 0x2548, symBinAddr: 0x10000C8AC, symSize: 0x28 }
  - { offsetInCU: 0x9294, offset: 0x2ECBA, size: 0x8, addend: 0x0, symName: __ZNKSt3__18ios_base4failB7v160006Ev, symObjAddr: 0x2570, symBinAddr: 0x10000C8D4, symSize: 0x28 }
  - { offsetInCU: 0x92BC, offset: 0x2ECE2, size: 0x8, addend: 0x0, symName: __ZNSt3__19allocatorIcEC1B7v160006Ev, symObjAddr: 0x2598, symBinAddr: 0x10000C8FC, symSize: 0x2C }
  - { offsetInCU: 0x92EC, offset: 0x2ED12, size: 0x8, addend: 0x0, symName: __ZNSt3__14pairINS_12basic_stringIcNS_11char_traitsIcEENS_9allocatorIcEEEEiEC2B7v160006Ev, symObjAddr: 0x3108, symBinAddr: 0x10000C928, symSize: 0x30 }
  - { offsetInCU: 0x9316, offset: 0x2ED3C, size: 0x8, addend: 0x0, symName: __ZNSt3__14pairINS_12basic_stringIcNS_11char_traitsIcEENS_9allocatorIcEEEEiEC1B7v160006ERKS6_RKi, symObjAddr: 0x3138, symBinAddr: 0x10000C958, symSize: 0x3C }
  - { offsetInCU: 0x935C, offset: 0x2ED82, size: 0x8, addend: 0x0, symName: __ZNSt3__14pairINS_12basic_stringIcNS_11char_traitsIcEENS_9allocatorIcEEEEiEC2B7v160006ERKS6_RKi, symObjAddr: 0x3174, symBinAddr: 0x10000C994, symSize: 0x44 }
  - { offsetInCU: 0x93A2, offset: 0x2EDC8, size: 0x8, addend: 0x0, symName: __ZNSt3__16vectorINS_4pairINS_12basic_stringIcNS_11char_traitsIcEENS_9allocatorIcEEEEiEENS5_IS8_EEE22__construct_one_at_endB7v160006IJRKS8_EEEvDpOT_, symObjAddr: 0x31E0, symBinAddr: 0x10000C9D8, symSize: 0x98 }
  - { offsetInCU: 0x93F0, offset: 0x2EE16, size: 0x8, addend: 0x0, symName: __ZNSt3__16vectorINS_4pairINS_12basic_stringIcNS_11char_traitsIcEENS_9allocatorIcEEEEiEENS5_IS8_EEE21__push_back_slow_pathIRKS8_EEvOT_, symObjAddr: 0x3278, symBinAddr: 0x10000CA70, symSize: 0xE0 }
  - { offsetInCU: 0x946A, offset: 0x2EE90, size: 0x8, addend: 0x0, symName: __ZNSt3__16vectorINS_4pairINS_12basic_stringIcNS_11char_traitsIcEENS_9allocatorIcEEEEiEENS5_IS8_EEE21_ConstructTransactionC1B7v160006ERSA_m, symObjAddr: 0x3390, symBinAddr: 0x10000CB50, symSize: 0x3C }
  - { offsetInCU: 0x94B2, offset: 0x2EED8, size: 0x8, addend: 0x0, symName: __ZNSt3__116allocator_traitsINS_9allocatorINS_4pairINS_12basic_stringIcNS_11char_traitsIcEENS1_IcEEEEiEEEEE9constructB7v160006IS8_JRKS8_EvEEvRS9_PT_DpOT0_, symObjAddr: 0x33CC, symBinAddr: 0x10000CB8C, symSize: 0x34 }
  - { offsetInCU: 0x9509, offset: 0x2EF2F, size: 0x8, addend: 0x0, symName: __ZNSt3__16vectorINS_4pairINS_12basic_stringIcNS_11char_traitsIcEENS_9allocatorIcEEEEiEENS5_IS8_EEE21_ConstructTransactionD1B7v160006Ev, symObjAddr: 0x3400, symBinAddr: 0x10000CBC0, symSize: 0x2C }
  - { offsetInCU: 0x9533, offset: 0x2EF59, size: 0x8, addend: 0x0, symName: __ZNSt3__16vectorINS_4pairINS_12basic_stringIcNS_11char_traitsIcEENS_9allocatorIcEEEEiEENS5_IS8_EEE21_ConstructTransactionC2B7v160006ERSA_m, symObjAddr: 0x342C, symBinAddr: 0x10000CBEC, symSize: 0x44 }
  - { offsetInCU: 0x957B, offset: 0x2EFA1, size: 0x8, addend: 0x0, symName: __ZNSt3__19allocatorINS_4pairINS_12basic_stringIcNS_11char_traitsIcEENS0_IcEEEEiEEE9constructB7v160006IS7_JRKS7_EEEvPT_DpOT0_, symObjAddr: 0x3470, symBinAddr: 0x10000CC30, symSize: 0x30 }
  - { offsetInCU: 0x95D1, offset: 0x2EFF7, size: 0x8, addend: 0x0, symName: __ZNSt3__14pairINS_12basic_stringIcNS_11char_traitsIcEENS_9allocatorIcEEEEiEC1ERKS7_, symObjAddr: 0x34A0, symBinAddr: 0x10000CC60, symSize: 0x34 }
  - { offsetInCU: 0x9606, offset: 0x2F02C, size: 0x8, addend: 0x0, symName: __ZNSt3__14pairINS_12basic_stringIcNS_11char_traitsIcEENS_9allocatorIcEEEEiEC2ERKS7_, symObjAddr: 0x34D4, symBinAddr: 0x10000CC94, symSize: 0x40 }
  - { offsetInCU: 0x963B, offset: 0x2F061, size: 0x8, addend: 0x0, symName: __ZNSt3__16vectorINS_4pairINS_12basic_stringIcNS_11char_traitsIcEENS_9allocatorIcEEEEiEENS5_IS8_EEE21_ConstructTransactionD2B7v160006Ev, symObjAddr: 0x3514, symBinAddr: 0x10000CCD4, symSize: 0x20 }
  - { offsetInCU: 0x9664, offset: 0x2F08A, size: 0x8, addend: 0x0, symName: __ZNKSt3__16vectorINS_4pairINS_12basic_stringIcNS_11char_traitsIcEENS_9allocatorIcEEEEiEENS5_IS8_EEE11__recommendB7v160006Em, symObjAddr: 0x3534, symBinAddr: 0x10000CCF4, symSize: 0xB4 }
  - { offsetInCU: 0x96BA, offset: 0x2F0E0, size: 0x8, addend: 0x0, symName: __ZNSt3__114__split_bufferINS_4pairINS_12basic_stringIcNS_11char_traitsIcEENS_9allocatorIcEEEEiEERNS5_IS8_EEEC1EmmSA_, symObjAddr: 0x35E8, symBinAddr: 0x10000CDA8, symSize: 0x44 }
  - { offsetInCU: 0x9710, offset: 0x2F136, size: 0x8, addend: 0x0, symName: __ZNSt3__114__split_bufferINS_4pairINS_12basic_stringIcNS_11char_traitsIcEENS_9allocatorIcEEEEiEERNS5_IS8_EEED1Ev, symObjAddr: 0x3744, symBinAddr: 0x10000CF04, symSize: 0x2C }
  - { offsetInCU: 0x973B, offset: 0x2F161, size: 0x8, addend: 0x0, symName: __ZNKSt3__16vectorINS_4pairINS_12basic_stringIcNS_11char_traitsIcEENS_9allocatorIcEEEEiEENS5_IS8_EEE8max_sizeEv, symObjAddr: 0x3770, symBinAddr: 0x10000CF30, symSize: 0x74 }
  - { offsetInCU: 0x9764, offset: 0x2F18A, size: 0x8, addend: 0x0, symName: __ZNKSt3__16vectorINS_4pairINS_12basic_stringIcNS_11char_traitsIcEENS_9allocatorIcEEEEiEENS5_IS8_EEE20__throw_length_errorB7v160006Ev, symObjAddr: 0x37E4, symBinAddr: 0x10000CFA4, symSize: 0x1C }
  - { offsetInCU: 0x9795, offset: 0x2F1BB, size: 0x8, addend: 0x0, symName: __ZNSt3__116allocator_traitsINS_9allocatorINS_4pairINS_12basic_stringIcNS_11char_traitsIcEENS1_IcEEEEiEEEEE8max_sizeB7v160006IS9_vEEmRKS9_, symObjAddr: 0x3858, symBinAddr: 0x10000CFEC, symSize: 0x24 }
  - { offsetInCU: 0x97C3, offset: 0x2F1E9, size: 0x8, addend: 0x0, symName: __ZNKSt3__16vectorINS_4pairINS_12basic_stringIcNS_11char_traitsIcEENS_9allocatorIcEEEEiEENS5_IS8_EEE7__allocB7v160006Ev, symObjAddr: 0x387C, symBinAddr: 0x10000D010, symSize: 0x28 }
  - { offsetInCU: 0x97F4, offset: 0x2F21A, size: 0x8, addend: 0x0, symName: __ZNKSt3__19allocatorINS_4pairINS_12basic_stringIcNS_11char_traitsIcEENS0_IcEEEEiEEE8max_sizeB7v160006Ev, symObjAddr: 0x3940, symBinAddr: 0x10000D038, symSize: 0x14 }
  - { offsetInCU: 0x981A, offset: 0x2F240, size: 0x8, addend: 0x0, symName: __ZNKSt3__117__compressed_pairIPNS_4pairINS_12basic_stringIcNS_11char_traitsIcEENS_9allocatorIcEEEEiEENS5_IS8_EEE6secondB7v160006Ev, symObjAddr: 0x3954, symBinAddr: 0x10000D04C, symSize: 0x24 }
  - { offsetInCU: 0x9840, offset: 0x2F266, size: 0x8, addend: 0x0, symName: __ZNKSt3__122__compressed_pair_elemINS_9allocatorINS_4pairINS_12basic_stringIcNS_11char_traitsIcEENS1_IcEEEEiEEEELi1ELb1EE5__getB7v160006Ev, symObjAddr: 0x3978, symBinAddr: 0x10000D070, symSize: 0x14 }
  - { offsetInCU: 0x9866, offset: 0x2F28C, size: 0x8, addend: 0x0, symName: __ZNSt3__114__split_bufferINS_4pairINS_12basic_stringIcNS_11char_traitsIcEENS_9allocatorIcEEEEiEERNS5_IS8_EEEC2EmmSA_, symObjAddr: 0x3ACC, symBinAddr: 0x10000D0D8, symSize: 0xD4 }
  - { offsetInCU: 0x98DA, offset: 0x2F300, size: 0x8, addend: 0x0, symName: __ZNSt3__117__compressed_pairIPNS_4pairINS_12basic_stringIcNS_11char_traitsIcEENS_9allocatorIcEEEEiEERNS5_IS8_EEEC1B7v160006IDnSB_EEOT_OT0_, symObjAddr: 0x3BA0, symBinAddr: 0x10000D1AC, symSize: 0x3C }
  - { offsetInCU: 0x9932, offset: 0x2F358, size: 0x8, addend: 0x0, symName: __ZNSt3__114__split_bufferINS_4pairINS_12basic_stringIcNS_11char_traitsIcEENS_9allocatorIcEEEEiEERNS5_IS8_EEE7__allocB7v160006Ev, symObjAddr: 0x3C1C, symBinAddr: 0x10000D228, symSize: 0x28 }
  - { offsetInCU: 0x9958, offset: 0x2F37E, size: 0x8, addend: 0x0, symName: __ZNSt3__114__split_bufferINS_4pairINS_12basic_stringIcNS_11char_traitsIcEENS_9allocatorIcEEEEiEERNS5_IS8_EEE9__end_capB7v160006Ev, symObjAddr: 0x3C44, symBinAddr: 0x10000D250, symSize: 0x28 }
  - { offsetInCU: 0x997E, offset: 0x2F3A4, size: 0x8, addend: 0x0, symName: __ZNSt3__117__compressed_pairIPNS_4pairINS_12basic_stringIcNS_11char_traitsIcEENS_9allocatorIcEEEEiEERNS5_IS8_EEEC2B7v160006IDnSB_EEOT_OT0_, symObjAddr: 0x3C6C, symBinAddr: 0x10000D278, symSize: 0x48 }
  - { offsetInCU: 0x99D6, offset: 0x2F3FC, size: 0x8, addend: 0x0, symName: __ZNSt3__122__compressed_pair_elemIRNS_9allocatorINS_4pairINS_12basic_stringIcNS_11char_traitsIcEENS1_IcEEEEiEEEELi1ELb0EEC2B7v160006ISA_vEEOT_, symObjAddr: 0x3CB4, symBinAddr: 0x10000D2C0, symSize: 0x20 }
  - { offsetInCU: 0x9A18, offset: 0x2F43E, size: 0x8, addend: 0x0, symName: __ZNSt3__19allocatorINS_4pairINS_12basic_stringIcNS_11char_traitsIcEENS0_IcEEEEiEEE8allocateB7v160006Em, symObjAddr: 0x3CD4, symBinAddr: 0x10000D2E0, symSize: 0x84 }
  - { offsetInCU: 0x9A4C, offset: 0x2F472, size: 0x8, addend: 0x0, symName: __ZNSt3__117__compressed_pairIPNS_4pairINS_12basic_stringIcNS_11char_traitsIcEENS_9allocatorIcEEEEiEERNS5_IS8_EEE6secondB7v160006Ev, symObjAddr: 0x3D58, symBinAddr: 0x10000D364, symSize: 0x28 }
  - { offsetInCU: 0x9A72, offset: 0x2F498, size: 0x8, addend: 0x0, symName: __ZNSt3__122__compressed_pair_elemIRNS_9allocatorINS_4pairINS_12basic_stringIcNS_11char_traitsIcEENS1_IcEEEEiEEEELi1ELb0EE5__getB7v160006Ev, symObjAddr: 0x3D80, symBinAddr: 0x10000D38C, symSize: 0x18 }
  - { offsetInCU: 0x9A98, offset: 0x2F4BE, size: 0x8, addend: 0x0, symName: __ZNSt3__117__compressed_pairIPNS_4pairINS_12basic_stringIcNS_11char_traitsIcEENS_9allocatorIcEEEEiEERNS5_IS8_EEE5firstB7v160006Ev, symObjAddr: 0x3D98, symBinAddr: 0x10000D3A4, symSize: 0x24 }
  - { offsetInCU: 0x9ABE, offset: 0x2F4E4, size: 0x8, addend: 0x0, symName: __ZNSt3__116reverse_iteratorIPNS_4pairINS_12basic_stringIcNS_11char_traitsIcEENS_9allocatorIcEEEEiEEEC1B7v160006ES9_, symObjAddr: 0x3EF0, symBinAddr: 0x10000D4FC, symSize: 0x34 }
  - { offsetInCU: 0x9AF6, offset: 0x2F51C, size: 0x8, addend: 0x0, symName: __ZNKSt3__116reverse_iteratorIPNS_4pairINS_12basic_stringIcNS_11char_traitsIcEENS_9allocatorIcEEEEiEEE4baseB7v160006Ev, symObjAddr: 0x3F24, symBinAddr: 0x10000D530, symSize: 0x18 }
  - { offsetInCU: 0x9B1C, offset: 0x2F542, size: 0x8, addend: 0x0, symName: __ZNKSt3__16vectorINS_4pairINS_12basic_stringIcNS_11char_traitsIcEENS_9allocatorIcEEEEiEENS5_IS8_EEE14__annotate_newB7v160006Em, symObjAddr: 0x3F78, symBinAddr: 0x10000D584, symSize: 0xAC }
  - { offsetInCU: 0x9B51, offset: 0x2F577, size: 0x8, addend: 0x0, symName: __ZNSt3__129_AllocatorDestroyRangeReverseINS_9allocatorINS_4pairINS_12basic_stringIcNS_11char_traitsIcEENS1_IcEEEEiEEEENS_16reverse_iteratorIPS8_EEEC1B7v160006ERS9_RSC_SF_, symObjAddr: 0x4080, symBinAddr: 0x10000D67C, symSize: 0x44 }
  - { offsetInCU: 0x9BA8, offset: 0x2F5CE, size: 0x8, addend: 0x0, symName: __ZNKSt3__116reverse_iteratorIPNS_4pairINS_12basic_stringIcNS_11char_traitsIcEENS_9allocatorIcEEEEiEEEdeB7v160006Ev, symObjAddr: 0x4130, symBinAddr: 0x10000D72C, symSize: 0x28 }
  - { offsetInCU: 0x9BDC, offset: 0x2F602, size: 0x8, addend: 0x0, symName: __ZNSt3__116reverse_iteratorIPNS_4pairINS_12basic_stringIcNS_11char_traitsIcEENS_9allocatorIcEEEEiEEEppB7v160006Ev, symObjAddr: 0x4158, symBinAddr: 0x10000D754, symSize: 0x20 }
  - { offsetInCU: 0x9C02, offset: 0x2F628, size: 0x8, addend: 0x0, symName: __ZNSt3__128__exception_guard_exceptionsINS_29_AllocatorDestroyRangeReverseINS_9allocatorINS_4pairINS_12basic_stringIcNS_11char_traitsIcEENS2_IcEEEEiEEEENS_16reverse_iteratorIPS9_EEEEE10__completeB7v160006Ev, symObjAddr: 0x4178, symBinAddr: 0x10000D774, symSize: 0x1C }
  - { offsetInCU: 0x9C28, offset: 0x2F64E, size: 0x8, addend: 0x0, symName: __ZNSt3__128__exception_guard_exceptionsINS_29_AllocatorDestroyRangeReverseINS_9allocatorINS_4pairINS_12basic_stringIcNS_11char_traitsIcEENS2_IcEEEEiEEEENS_16reverse_iteratorIPS9_EEEEED1B7v160006Ev, symObjAddr: 0x4194, symBinAddr: 0x10000D790, symSize: 0x2C }
  - { offsetInCU: 0x9C52, offset: 0x2F678, size: 0x8, addend: 0x0, symName: __ZNSt3__128__exception_guard_exceptionsINS_29_AllocatorDestroyRangeReverseINS_9allocatorINS_4pairINS_12basic_stringIcNS_11char_traitsIcEENS2_IcEEEEiEEEENS_16reverse_iteratorIPS9_EEEEEC1B7v160006ESE_, symObjAddr: 0x41C0, symBinAddr: 0x10000D7BC, symSize: 0x34 }
  - { offsetInCU: 0x9C8B, offset: 0x2F6B1, size: 0x8, addend: 0x0, symName: __ZNSt3__128__exception_guard_exceptionsINS_29_AllocatorDestroyRangeReverseINS_9allocatorINS_4pairINS_12basic_stringIcNS_11char_traitsIcEENS2_IcEEEEiEEEENS_16reverse_iteratorIPS9_EEEEEC2B7v160006ESE_, symObjAddr: 0x41F4, symBinAddr: 0x10000D7F0, symSize: 0x30 }
  - { offsetInCU: 0x9CC4, offset: 0x2F6EA, size: 0x8, addend: 0x0, symName: __ZNSt3__129_AllocatorDestroyRangeReverseINS_9allocatorINS_4pairINS_12basic_stringIcNS_11char_traitsIcEENS1_IcEEEEiEEEENS_16reverse_iteratorIPS8_EEEC2B7v160006ERS9_RSC_SF_, symObjAddr: 0x4224, symBinAddr: 0x10000D820, symSize: 0x38 }
  - { offsetInCU: 0x9D21, offset: 0x2F747, size: 0x8, addend: 0x0, symName: __ZNSt3__119__to_address_helperINS_16reverse_iteratorIPNS_4pairINS_12basic_stringIcNS_11char_traitsIcEENS_9allocatorIcEEEEiEEEEvE6__callB7v160006ERKSB_, symObjAddr: 0x425C, symBinAddr: 0x10000D858, symSize: 0x4C }
  - { offsetInCU: 0x9D44, offset: 0x2F76A, size: 0x8, addend: 0x0, symName: __ZNKSt3__116reverse_iteratorIPNS_4pairINS_12basic_stringIcNS_11char_traitsIcEENS_9allocatorIcEEEEiEEEptB7v160006Ev, symObjAddr: 0x42A8, symBinAddr: 0x10000D8A4, symSize: 0x24 }
  - { offsetInCU: 0x9D6A, offset: 0x2F790, size: 0x8, addend: 0x0, symName: __ZNSt3__128__exception_guard_exceptionsINS_29_AllocatorDestroyRangeReverseINS_9allocatorINS_4pairINS_12basic_stringIcNS_11char_traitsIcEENS2_IcEEEEiEEEENS_16reverse_iteratorIPS9_EEEEED2B7v160006Ev, symObjAddr: 0x42CC, symBinAddr: 0x10000D8C8, symSize: 0x48 }
  - { offsetInCU: 0x9D94, offset: 0x2F7BA, size: 0x8, addend: 0x0, symName: __ZNKSt3__129_AllocatorDestroyRangeReverseINS_9allocatorINS_4pairINS_12basic_stringIcNS_11char_traitsIcEENS1_IcEEEEiEEEENS_16reverse_iteratorIPS8_EEEclB7v160006Ev, symObjAddr: 0x4314, symBinAddr: 0x10000D910, symSize: 0xB4 }
  - { offsetInCU: 0x9DBB, offset: 0x2F7E1, size: 0x8, addend: 0x0, symName: __ZNSt3__116reverse_iteratorINS0_IPNS_4pairINS_12basic_stringIcNS_11char_traitsIcEENS_9allocatorIcEEEEiEEEEEC1B7v160006ESA_, symObjAddr: 0x4438, symBinAddr: 0x10000DA34, symSize: 0x3C }
  - { offsetInCU: 0x9DF3, offset: 0x2F819, size: 0x8, addend: 0x0, symName: __ZNSt3__116reverse_iteratorINS0_IPNS_4pairINS_12basic_stringIcNS_11char_traitsIcEENS_9allocatorIcEEEEiEEEEEppB7v160006Ev, symObjAddr: 0x44F8, symBinAddr: 0x10000DAF4, symSize: 0x30 }
  - { offsetInCU: 0x9E19, offset: 0x2F83F, size: 0x8, addend: 0x0, symName: __ZNKSt3__116reverse_iteratorINS0_IPNS_4pairINS_12basic_stringIcNS_11char_traitsIcEENS_9allocatorIcEEEEiEEEEE4baseB7v160006Ev, symObjAddr: 0x4528, symBinAddr: 0x10000DB24, symSize: 0x24 }
  - { offsetInCU: 0x9E45, offset: 0x2F86B, size: 0x8, addend: 0x0, symName: __ZNSt3__119__to_address_helperINS_16reverse_iteratorINS1_IPNS_4pairINS_12basic_stringIcNS_11char_traitsIcEENS_9allocatorIcEEEEiEEEEEEvE6__callB7v160006ERKSC_, symObjAddr: 0x454C, symBinAddr: 0x10000DB48, symSize: 0x4C }
  - { offsetInCU: 0x9E68, offset: 0x2F88E, size: 0x8, addend: 0x0, symName: __ZNKSt3__116reverse_iteratorINS0_IPNS_4pairINS_12basic_stringIcNS_11char_traitsIcEENS_9allocatorIcEEEEiEEEEEptB7v160006Ev, symObjAddr: 0x4598, symBinAddr: 0x10000DB94, symSize: 0x24 }
  - { offsetInCU: 0x9E8E, offset: 0x2F8B4, size: 0x8, addend: 0x0, symName: __ZNKSt3__116reverse_iteratorINS0_IPNS_4pairINS_12basic_stringIcNS_11char_traitsIcEENS_9allocatorIcEEEEiEEEEEdeB7v160006Ev, symObjAddr: 0x45BC, symBinAddr: 0x10000DBB8, symSize: 0x34 }
  - { offsetInCU: 0x9EC2, offset: 0x2F8E8, size: 0x8, addend: 0x0, symName: __ZNSt3__116reverse_iteratorIPNS_4pairINS_12basic_stringIcNS_11char_traitsIcEENS_9allocatorIcEEEEiEEEmmB7v160006Ev, symObjAddr: 0x45F0, symBinAddr: 0x10000DBEC, symSize: 0x20 }
  - { offsetInCU: 0x9EE8, offset: 0x2F90E, size: 0x8, addend: 0x0, symName: __ZNSt3__116reverse_iteratorINS0_IPNS_4pairINS_12basic_stringIcNS_11char_traitsIcEENS_9allocatorIcEEEEiEEEEEC2B7v160006ESA_, symObjAddr: 0x4610, symBinAddr: 0x10000DC0C, symSize: 0x2C }
  - { offsetInCU: 0x9F20, offset: 0x2F946, size: 0x8, addend: 0x0, symName: __ZNSt3__116reverse_iteratorIPNS_4pairINS_12basic_stringIcNS_11char_traitsIcEENS_9allocatorIcEEEEiEEEC2B7v160006ES9_, symObjAddr: 0x463C, symBinAddr: 0x10000DC38, symSize: 0x28 }
  - { offsetInCU: 0x9F58, offset: 0x2F97E, size: 0x8, addend: 0x0, symName: __ZNSt3__114__split_bufferINS_4pairINS_12basic_stringIcNS_11char_traitsIcEENS_9allocatorIcEEEEiEERNS5_IS8_EEED2Ev, symObjAddr: 0x4664, symBinAddr: 0x10000DC60, symSize: 0x80 }
  - { offsetInCU: 0x9F84, offset: 0x2F9AA, size: 0x8, addend: 0x0, symName: __ZNSt3__114__split_bufferINS_4pairINS_12basic_stringIcNS_11char_traitsIcEENS_9allocatorIcEEEEiEERNS5_IS8_EEE5clearB7v160006Ev, symObjAddr: 0x46E4, symBinAddr: 0x10000DCE0, symSize: 0x28 }
  - { offsetInCU: 0x9FAA, offset: 0x2F9D0, size: 0x8, addend: 0x0, symName: __ZNKSt3__114__split_bufferINS_4pairINS_12basic_stringIcNS_11char_traitsIcEENS_9allocatorIcEEEEiEERNS5_IS8_EEE8capacityB7v160006Ev, symObjAddr: 0x470C, symBinAddr: 0x10000DD08, symSize: 0x40 }
  - { offsetInCU: 0x9FD0, offset: 0x2F9F6, size: 0x8, addend: 0x0, symName: __ZNSt3__114__split_bufferINS_4pairINS_12basic_stringIcNS_11char_traitsIcEENS_9allocatorIcEEEEiEERNS5_IS8_EEE17__destruct_at_endB7v160006EPS8_, symObjAddr: 0x474C, symBinAddr: 0x10000DD48, symSize: 0x2C }
  - { offsetInCU: 0xA003, offset: 0x2FA29, size: 0x8, addend: 0x0, symName: __ZNSt3__114__split_bufferINS_4pairINS_12basic_stringIcNS_11char_traitsIcEENS_9allocatorIcEEEEiEERNS5_IS8_EEE17__destruct_at_endB7v160006EPS8_NS_17integral_constantIbLb0EEE, symObjAddr: 0x4778, symBinAddr: 0x10000DD74, symSize: 0x94 }
  - { offsetInCU: 0xA045, offset: 0x2FA6B, size: 0x8, addend: 0x0, symName: __ZNKSt3__114__split_bufferINS_4pairINS_12basic_stringIcNS_11char_traitsIcEENS_9allocatorIcEEEEiEERNS5_IS8_EEE9__end_capB7v160006Ev, symObjAddr: 0x480C, symBinAddr: 0x10000DE08, symSize: 0x28 }
  - { offsetInCU: 0xA06B, offset: 0x2FA91, size: 0x8, addend: 0x0, symName: __ZNKSt3__117__compressed_pairIPNS_4pairINS_12basic_stringIcNS_11char_traitsIcEENS_9allocatorIcEEEEiEERNS5_IS8_EEE5firstB7v160006Ev, symObjAddr: 0x4834, symBinAddr: 0x10000DE30, symSize: 0x24 }
  - { offsetInCU: 0x28B5, offset: 0x323FD, size: 0x8, addend: 0x0, symName: __ZN4MenuC2Ev, symObjAddr: 0x0, symBinAddr: 0x10000DE54, symSize: 0xAC }
  - { offsetInCU: 0x28E1, offset: 0x32429, size: 0x8, addend: 0x0, symName: __ZN4MenuC1Ev, symObjAddr: 0x178, symBinAddr: 0x10000DF00, symSize: 0x2C }
  - { offsetInCU: 0x290D, offset: 0x32455, size: 0x8, addend: 0x0, symName: __ZN4Menu15checkGameChoiceEv, symObjAddr: 0x1A4, symBinAddr: 0x10000DF2C, symSize: 0x154 }
  - { offsetInCU: 0x26, offset: 0x324C5, size: 0x8, addend: 0x0, symName: __ZN6PlayerC2Ev, symObjAddr: 0x0, symBinAddr: 0x10000E080, symSize: 0x1C }
  - { offsetInCU: 0x28B5, offset: 0x34D54, size: 0x8, addend: 0x0, symName: __ZN6PlayerC2Ev, symObjAddr: 0x0, symBinAddr: 0x10000E080, symSize: 0x1C }
  - { offsetInCU: 0x28E1, offset: 0x34D80, size: 0x8, addend: 0x0, symName: __ZN6PlayerC1Ev, symObjAddr: 0x1C, symBinAddr: 0x10000E09C, symSize: 0x2C }
...
